

Microchip MPLAB XC8 Assembler V2.31 build 20201012212115 
                                                                                               Tue Aug 10 10:04:56 2021

Microchip MPLAB XC8 C Compiler v2.31 (Free license) build 20201012212115 Og1 
     1                           	processor	16F887
     2                           	pagewidth 120
     3                           	opt	flic
     4                           	psect	strings,global,class=STRING,delta=2,noexec
     5                           	psect	cinit,global,class=CODE,merge=1,delta=2
     6                           	psect	bssBANK0,global,class=BANK0,space=1,delta=1,noexec
     7                           	psect	bssBANK1,global,class=BANK1,space=1,delta=1,noexec
     8                           	psect	cstackBANK1,global,class=BANK1,space=1,delta=1,noexec
     9                           	psect	cstackCOMMON,global,class=COMMON,space=1,delta=1,noexec
    10                           	psect	cstackBANK0,global,class=BANK0,space=1,delta=1,noexec
    11                           	psect	maintext,global,class=CODE,split=1,delta=2
    12                           	psect	text1,local,class=CODE,merge=1,delta=2
    13                           	psect	text2,local,class=CODE,merge=1,delta=2
    14                           	psect	text3,local,class=CODE,merge=1,delta=2
    15                           	psect	text4,local,class=CODE,merge=1,delta=2,group=1
    16                           	psect	text5,local,class=CODE,merge=1,delta=2,group=1
    17                           	psect	text6,local,class=CODE,merge=1,delta=2,group=1
    18                           	psect	text7,local,class=CODE,merge=1,delta=2,group=1
    19                           	psect	text8,local,class=CODE,merge=1,delta=2,group=1
    20                           	psect	text9,local,class=CODE,merge=1,delta=2,group=1
    21                           	psect	text10,local,class=CODE,merge=1,delta=2,group=1
    22                           	psect	text11,local,class=CODE,merge=1,delta=2,group=1
    23                           	psect	text12,local,class=CODE,merge=1,delta=2,group=1
    24                           	psect	text13,local,class=CODE,merge=1,delta=2,group=1
    25                           	psect	text14,local,class=CODE,merge=1,delta=2
    26                           	psect	text15,local,class=CODE,merge=1,delta=2
    27                           	psect	text16,local,class=CODE,merge=1,delta=2
    28                           	psect	text17,local,class=CODE,merge=1,delta=2
    29                           	psect	text18,local,class=CODE,merge=1,delta=2
    30                           	psect	text19,local,class=CODE,merge=1,delta=2
    31                           	psect	text20,local,class=CODE,merge=1,delta=2
    32                           	psect	text21,local,class=CODE,merge=1,delta=2
    33                           	psect	text22,local,class=CODE,merge=1,delta=2
    34                           	psect	config,global,abs,ovrld,class=CONFIG,space=4,delta=2,noexec
    35                           	dabs	1,0x7E,2
    36  0000                     
    37                           ; Version 2.20
    38                           ; Generated 12/02/2020 GMT
    39                           ; 
    40                           ; Copyright © 2020, Microchip Technology Inc. and its subsidiaries ("Microchip")
    41                           ; All rights reserved.
    42                           ; 
    43                           ; This software is developed by Microchip Technology Inc. and its subsidiaries ("Microch
      +                          ip").
    44                           ; 
    45                           ; Redistribution and use in source and binary forms, with or without modification, are
    46                           ; permitted provided that the following conditions are met:
    47                           ; 
    48                           ;     1. Redistributions of source code must retain the above copyright notice, this lis
      +                          t of
    49                           ;        conditions and the following disclaimer.
    50                           ; 
    51                           ;     2. Redistributions in binary form must reproduce the above copyright notice, this 
      +                          list
    52                           ;        of conditions and the following disclaimer in the documentation and/or other
    53                           ;        materials provided with the distribution.
    54                           ; 
    55                           ;     3. Microchip's name may not be used to endorse or promote products derived from th
      +                          is
    56                           ;        software without specific prior written permission.
    57                           ; 
    58                           ; THIS SOFTWARE IS PROVIDED BY MICROCHIP "AS IS" AND ANY EXPRESS OR IMPLIED WARRANTIES,
    59                           ; INCLUDING, BUT NOT LIMITED TO, THE IMPLIED WARRANTIES OF MERCHANTABILITY AND FITNESS F
      +                          OR
    60                           ; PURPOSE ARE DISCLAIMED.  IN NO EVENT SHALL MICROCHIP BE LIABLE FOR ANY DIRECT, INDIREC
      +                          T,
    61                           ; INCIDENTAL, SPECIAL, EXEMPLARY, OR CONSEQUENTIAL DAMAGES (INCLUDING BUT NOT LIMITED TO
    62                           ; PROCUREMENT OF SUBSTITUTE GOODS OR SERVICES; LOSS OF USE, DATA OR PROFITS; OR BUSINESS
    63                           ; INTERRUPTION) HOWSOEVER CAUSED AND ON ANY THEORY OF LIABILITY, WHETHER IN CONTRACT, ST
      +                          RICT
    64                           ; LIABILITY, OR TORT (INCLUDING NEGLIGENCE OR OTHERWISE) ARISING IN ANY WAY OUT OF THE U
      +                          SE OF
    65                           ; THIS SOFTWARE, EVEN IF ADVISED OF THE POSSIBILITY OF SUCH DAMAGE.
    66                           ; 
    67                           ; 
    68                           ; Code-generator required, PIC16F887 Definitions
    69                           ; 
    70                           ; SFR Addresses
    71  0000                     	;# 
    72  0001                     	;# 
    73  0002                     	;# 
    74  0003                     	;# 
    75  0004                     	;# 
    76  0005                     	;# 
    77  0006                     	;# 
    78  0007                     	;# 
    79  0008                     	;# 
    80  0009                     	;# 
    81  000A                     	;# 
    82  000B                     	;# 
    83  000C                     	;# 
    84  000D                     	;# 
    85  000E                     	;# 
    86  000E                     	;# 
    87  000F                     	;# 
    88  0010                     	;# 
    89  0011                     	;# 
    90  0012                     	;# 
    91  0013                     	;# 
    92  0014                     	;# 
    93  0015                     	;# 
    94  0015                     	;# 
    95  0016                     	;# 
    96  0017                     	;# 
    97  0018                     	;# 
    98  0019                     	;# 
    99  001A                     	;# 
   100  001B                     	;# 
   101  001B                     	;# 
   102  001C                     	;# 
   103  001D                     	;# 
   104  001E                     	;# 
   105  001F                     	;# 
   106  0081                     	;# 
   107  0085                     	;# 
   108  0086                     	;# 
   109  0087                     	;# 
   110  0088                     	;# 
   111  0089                     	;# 
   112  008C                     	;# 
   113  008D                     	;# 
   114  008E                     	;# 
   115  008F                     	;# 
   116  0090                     	;# 
   117  0091                     	;# 
   118  0092                     	;# 
   119  0093                     	;# 
   120  0093                     	;# 
   121  0093                     	;# 
   122  0094                     	;# 
   123  0095                     	;# 
   124  0096                     	;# 
   125  0097                     	;# 
   126  0098                     	;# 
   127  0099                     	;# 
   128  009A                     	;# 
   129  009B                     	;# 
   130  009C                     	;# 
   131  009D                     	;# 
   132  009E                     	;# 
   133  009F                     	;# 
   134  0105                     	;# 
   135  0107                     	;# 
   136  0108                     	;# 
   137  0109                     	;# 
   138  010C                     	;# 
   139  010C                     	;# 
   140  010D                     	;# 
   141  010E                     	;# 
   142  010F                     	;# 
   143  0185                     	;# 
   144  0187                     	;# 
   145  0188                     	;# 
   146  0189                     	;# 
   147  018C                     	;# 
   148  018D                     	;# 
   149  0000                     	;# 
   150  0001                     	;# 
   151  0002                     	;# 
   152  0003                     	;# 
   153  0004                     	;# 
   154  0005                     	;# 
   155  0006                     	;# 
   156  0007                     	;# 
   157  0008                     	;# 
   158  0009                     	;# 
   159  000A                     	;# 
   160  000B                     	;# 
   161  000C                     	;# 
   162  000D                     	;# 
   163  000E                     	;# 
   164  000E                     	;# 
   165  000F                     	;# 
   166  0010                     	;# 
   167  0011                     	;# 
   168  0012                     	;# 
   169  0013                     	;# 
   170  0014                     	;# 
   171  0015                     	;# 
   172  0015                     	;# 
   173  0016                     	;# 
   174  0017                     	;# 
   175  0018                     	;# 
   176  0019                     	;# 
   177  001A                     	;# 
   178  001B                     	;# 
   179  001B                     	;# 
   180  001C                     	;# 
   181  001D                     	;# 
   182  001E                     	;# 
   183  001F                     	;# 
   184  0081                     	;# 
   185  0085                     	;# 
   186  0086                     	;# 
   187  0087                     	;# 
   188  0088                     	;# 
   189  0089                     	;# 
   190  008C                     	;# 
   191  008D                     	;# 
   192  008E                     	;# 
   193  008F                     	;# 
   194  0090                     	;# 
   195  0091                     	;# 
   196  0092                     	;# 
   197  0093                     	;# 
   198  0093                     	;# 
   199  0093                     	;# 
   200  0094                     	;# 
   201  0095                     	;# 
   202  0096                     	;# 
   203  0097                     	;# 
   204  0098                     	;# 
   205  0099                     	;# 
   206  009A                     	;# 
   207  009B                     	;# 
   208  009C                     	;# 
   209  009D                     	;# 
   210  009E                     	;# 
   211  009F                     	;# 
   212  0105                     	;# 
   213  0107                     	;# 
   214  0108                     	;# 
   215  0109                     	;# 
   216  010C                     	;# 
   217  010C                     	;# 
   218  010D                     	;# 
   219  010E                     	;# 
   220  010F                     	;# 
   221  0185                     	;# 
   222  0187                     	;# 
   223  0188                     	;# 
   224  0189                     	;# 
   225  018C                     	;# 
   226  018D                     	;# 
   227  0000                     	;# 
   228  0001                     	;# 
   229  0002                     	;# 
   230  0003                     	;# 
   231  0004                     	;# 
   232  0005                     	;# 
   233  0006                     	;# 
   234  0007                     	;# 
   235  0008                     	;# 
   236  0009                     	;# 
   237  000A                     	;# 
   238  000B                     	;# 
   239  000C                     	;# 
   240  000D                     	;# 
   241  000E                     	;# 
   242  000E                     	;# 
   243  000F                     	;# 
   244  0010                     	;# 
   245  0011                     	;# 
   246  0012                     	;# 
   247  0013                     	;# 
   248  0014                     	;# 
   249  0015                     	;# 
   250  0015                     	;# 
   251  0016                     	;# 
   252  0017                     	;# 
   253  0018                     	;# 
   254  0019                     	;# 
   255  001A                     	;# 
   256  001B                     	;# 
   257  001B                     	;# 
   258  001C                     	;# 
   259  001D                     	;# 
   260  001E                     	;# 
   261  001F                     	;# 
   262  0081                     	;# 
   263  0085                     	;# 
   264  0086                     	;# 
   265  0087                     	;# 
   266  0088                     	;# 
   267  0089                     	;# 
   268  008C                     	;# 
   269  008D                     	;# 
   270  008E                     	;# 
   271  008F                     	;# 
   272  0090                     	;# 
   273  0091                     	;# 
   274  0092                     	;# 
   275  0093                     	;# 
   276  0093                     	;# 
   277  0093                     	;# 
   278  0094                     	;# 
   279  0095                     	;# 
   280  0096                     	;# 
   281  0097                     	;# 
   282  0098                     	;# 
   283  0099                     	;# 
   284  009A                     	;# 
   285  009B                     	;# 
   286  009C                     	;# 
   287  009D                     	;# 
   288  009E                     	;# 
   289  009F                     	;# 
   290  0105                     	;# 
   291  0107                     	;# 
   292  0108                     	;# 
   293  0109                     	;# 
   294  010C                     	;# 
   295  010C                     	;# 
   296  010D                     	;# 
   297  010E                     	;# 
   298  010F                     	;# 
   299  0185                     	;# 
   300  0187                     	;# 
   301  0188                     	;# 
   302  0189                     	;# 
   303  018C                     	;# 
   304  018D                     	;# 
   305  0000                     	;# 
   306  0001                     	;# 
   307  0002                     	;# 
   308  0003                     	;# 
   309  0004                     	;# 
   310  0005                     	;# 
   311  0006                     	;# 
   312  0007                     	;# 
   313  0008                     	;# 
   314  0009                     	;# 
   315  000A                     	;# 
   316  000B                     	;# 
   317  000C                     	;# 
   318  000D                     	;# 
   319  000E                     	;# 
   320  000E                     	;# 
   321  000F                     	;# 
   322  0010                     	;# 
   323  0011                     	;# 
   324  0012                     	;# 
   325  0013                     	;# 
   326  0014                     	;# 
   327  0015                     	;# 
   328  0015                     	;# 
   329  0016                     	;# 
   330  0017                     	;# 
   331  0018                     	;# 
   332  0019                     	;# 
   333  001A                     	;# 
   334  001B                     	;# 
   335  001B                     	;# 
   336  001C                     	;# 
   337  001D                     	;# 
   338  001E                     	;# 
   339  001F                     	;# 
   340  0081                     	;# 
   341  0085                     	;# 
   342  0086                     	;# 
   343  0087                     	;# 
   344  0088                     	;# 
   345  0089                     	;# 
   346  008C                     	;# 
   347  008D                     	;# 
   348  008E                     	;# 
   349  008F                     	;# 
   350  0090                     	;# 
   351  0091                     	;# 
   352  0092                     	;# 
   353  0093                     	;# 
   354  0093                     	;# 
   355  0093                     	;# 
   356  0094                     	;# 
   357  0095                     	;# 
   358  0096                     	;# 
   359  0097                     	;# 
   360  0098                     	;# 
   361  0099                     	;# 
   362  009A                     	;# 
   363  009B                     	;# 
   364  009C                     	;# 
   365  009D                     	;# 
   366  009E                     	;# 
   367  009F                     	;# 
   368  0105                     	;# 
   369  0107                     	;# 
   370  0108                     	;# 
   371  0109                     	;# 
   372  010C                     	;# 
   373  010C                     	;# 
   374  010D                     	;# 
   375  010E                     	;# 
   376  010F                     	;# 
   377  0185                     	;# 
   378  0187                     	;# 
   379  0188                     	;# 
   380  0189                     	;# 
   381  018C                     	;# 
   382  018D                     	;# 
   383  0007                     _PORTCbits	set	7
   384  0008                     _PORTD	set	8
   385  0006                     _PORTB	set	6
   386  0005                     _PORTA	set	5
   387  0013                     _SSPBUF	set	19
   388  0014                     _SSPCON	set	20
   389  0063                     _SSPIF	set	99
   390  005E                     _PEIE	set	94
   391  005F                     _GIE	set	95
   392  008F                     _OSCCONbits	set	143
   393  0088                     _TRISD	set	136
   394  0086                     _TRISB	set	134
   395  0085                     _TRISA	set	133
   396  0091                     _SSPCON2bits	set	145
   397  0087                     _TRISCbits	set	135
   398  0094                     _SSPSTAT	set	148
   399  0093                     _SSPADD	set	147
   400  0091                     _SSPCON2	set	145
   401  0463                     _SSPIE	set	1123
   402  043C                     _TRISC4	set	1084
   403  043B                     _TRISC3	set	1083
   404  0189                     _ANSELH	set	393
   405  0188                     _ANSEL	set	392
   406                           
   407                           	psect	strings
   408  0800                     __pstrings:
   409  0800                     stringtab:
   410  0800                     __stringtab:
   411  0800                     stringcode:	
   412                           ;	String table - string pointers are 1 byte each
   413                           
   414  0800                     stringdir:
   415  0800  3008               	movlw	high stringdir
   416  0801  008A               	movwf	10
   417  0802  0804               	movf	4,w
   418  0803  0A84               	incf	4,f
   419  0804  0782               	addwf	2,f
   420  0805                     __stringbase:
   421  0805  3400               	retlw	0
   422  0806                     __end_of__stringtab:
   423  0806                     STR_1:
   424  0806  3453               	retlw	83	;'S'
   425  0807  3431               	retlw	49	;'1'
   426  0808  3420               	retlw	32	;' '
   427  0809  3420               	retlw	32	;' '
   428  080A  3420               	retlw	32	;' '
   429  080B  3420               	retlw	32	;' '
   430  080C  3453               	retlw	83	;'S'
   431  080D  3432               	retlw	50	;'2'
   432  080E  3420               	retlw	32	;' '
   433  080F  3420               	retlw	32	;' '
   434  0810  3420               	retlw	32	;' '
   435  0811  3420               	retlw	32	;' '
   436  0812  3420               	retlw	32	;' '
   437  0813  3453               	retlw	83	;'S'
   438  0814  3433               	retlw	51	;'3'
   439  0815  3400               	retlw	0
   440                           
   441                           	psect	cinit
   442  07E9                     start_initialization:	
   443                           ; #config settings
   444                           
   445  07E9                     __initialization:
   446                           
   447                           ; Clear objects allocated to BANK0
   448  07E9  1283               	bcf	3,5	;RP0=0, select bank0
   449  07EA  1303               	bcf	3,6	;RP1=0, select bank0
   450  07EB  01EE               	clrf	__pbssBANK0& (0+127)
   451  07EC  01EF               	clrf	(__pbssBANK0+1)& (0+127)
   452                           
   453                           ; Clear objects allocated to BANK1
   454  07ED  1683               	bsf	3,5	;RP0=1, select bank1
   455  07EE  1303               	bcf	3,6	;RP1=0, select bank1
   456  07EF  01A0               	clrf	__pbssBANK1& (0+127)
   457  07F0  01A1               	clrf	(__pbssBANK1+1)& (0+127)
   458  07F1  01A2               	clrf	(__pbssBANK1+2)& (0+127)
   459  07F2  01A3               	clrf	(__pbssBANK1+3)& (0+127)
   460  07F3  01A4               	clrf	(__pbssBANK1+4)& (0+127)
   461  07F4  01A5               	clrf	(__pbssBANK1+5)& (0+127)
   462  07F5  01A6               	clrf	(__pbssBANK1+6)& (0+127)
   463  07F6  01A7               	clrf	(__pbssBANK1+7)& (0+127)
   464  07F7  01A8               	clrf	(__pbssBANK1+8)& (0+127)
   465  07F8  01A9               	clrf	(__pbssBANK1+9)& (0+127)
   466  07F9  01AA               	clrf	(__pbssBANK1+10)& (0+127)
   467  07FA  01AB               	clrf	(__pbssBANK1+11)& (0+127)
   468  07FB  01AC               	clrf	(__pbssBANK1+12)& (0+127)
   469  07FC                     end_of_initialization:	
   470                           ;End of C runtime variable initialization code
   471                           
   472  07FC                     __end_of__initialization:
   473  07FC  0183               	clrf	3
   474  07FD  120A  118A  2C3E   	ljmp	_main	;jump to C main() function
   475                           
   476                           	psect	bssBANK0
   477  006E                     __pbssBANK0:
   478  006E                     _TEMP:
   479  006E                     	ds	2
   480                           
   481                           	psect	bssBANK1
   482  00A0                     __pbssBANK1:
   483  00A0                     _CONT:
   484  00A0                     	ds	2
   485  00A2                     _ADC:
   486  00A2                     	ds	2
   487  00A4                     _unidad2:
   488  00A4                     	ds	1
   489  00A5                     _decena2:
   490  00A5                     	ds	1
   491  00A6                     _centena2:
   492  00A6                     	ds	1
   493  00A7                     _unidad1:
   494  00A7                     	ds	1
   495  00A8                     _decena1:
   496  00A8                     	ds	1
   497  00A9                     _centena1:
   498  00A9                     	ds	1
   499  00AA                     _unidad:
   500  00AA                     	ds	1
   501  00AB                     _decena:
   502  00AB                     	ds	1
   503  00AC                     _centena:
   504  00AC                     	ds	1
   505                           
   506                           	psect	cstackBANK1
   507  00AD                     __pcstackBANK1:
   508  00AD                     ??___fltol:
   509                           
   510                           ; 1 bytes @ 0x0
   511  00AD                     	ds	5
   512  00B2                     ??_main:
   513                           
   514                           ; 1 bytes @ 0x5
   515  00B2                     	ds	4
   516                           
   517                           	psect	cstackCOMMON
   518  0070                     __pcstackCOMMON:
   519  0070                     ?_setup:
   520  0070                     ?_LCD_Cadena:	
   521                           ; 1 bytes @ 0x0
   522                           
   523  0070                     ?_LCD_Data:	
   524                           ; 1 bytes @ 0x0
   525                           
   526  0070                     ??_LCD_Data:	
   527                           ; 1 bytes @ 0x0
   528                           
   529  0070                     ?_LCD_Init:	
   530                           ; 1 bytes @ 0x0
   531                           
   532  0070                     ?_LCD_comando:	
   533                           ; 1 bytes @ 0x0
   534                           
   535  0070                     ??_LCD_comando:	
   536                           ; 1 bytes @ 0x0
   537                           
   538  0070                     ?_I2C_Master_Wait:	
   539                           ; 1 bytes @ 0x0
   540                           
   541  0070                     ??_I2C_Master_Wait:	
   542                           ; 1 bytes @ 0x0
   543                           
   544  0070                     ?_I2C_Master_Start:	
   545                           ; 1 bytes @ 0x0
   546                           
   547  0070                     ??_I2C_Master_Start:	
   548                           ; 1 bytes @ 0x0
   549                           
   550  0070                     ?_I2C_Master_Stop:	
   551                           ; 1 bytes @ 0x0
   552                           
   553  0070                     ??_I2C_Master_Stop:	
   554                           ; 1 bytes @ 0x0
   555                           
   556  0070                     ?_I2C_Master_Write:	
   557                           ; 1 bytes @ 0x0
   558                           
   559  0070                     ?_main:	
   560                           ; 1 bytes @ 0x0
   561                           
   562  0070                     ?___bmul:	
   563                           ; 1 bytes @ 0x0
   564                           
   565  0070                     ?__Umul8_16:	
   566                           ; 1 bytes @ 0x0
   567                           
   568  0070                     ?_I2C_Master_Read:	
   569                           ; 2 bytes @ 0x0
   570                           
   571  0070                     ?___wmul:	
   572                           ; 2 bytes @ 0x0
   573                           
   574  0070                     ?___lldiv:	
   575                           ; 2 bytes @ 0x0
   576                           
   577  0070                     ?___xxtofl:	
   578                           ; 4 bytes @ 0x0
   579                           
   580  0070                     ___bmul@multiplicand:	
   581                           ; 4 bytes @ 0x0
   582                           
   583  0070                     __Umul8_16@multiplicand:	
   584                           ; 1 bytes @ 0x0
   585                           
   586  0070                     I2C_Master_Write@d:	
   587                           ; 1 bytes @ 0x0
   588                           
   589  0070                     I2C_Master_Read@a:	
   590                           ; 2 bytes @ 0x0
   591                           
   592  0070                     ___wmul@multiplier:	
   593                           ; 2 bytes @ 0x0
   594                           
   595  0070                     ___lldiv@divisor:	
   596                           ; 2 bytes @ 0x0
   597                           
   598  0070                     ___xxtofl@val:	
   599                           ; 4 bytes @ 0x0
   600                           
   601                           
   602                           ; 4 bytes @ 0x0
   603  0070                     	ds	1
   604  0071                     ??___bmul:
   605  0071                     LCD_comando@dato:	
   606                           ; 1 bytes @ 0x1
   607                           
   608  0071                     LCD_Data@data:	
   609                           ; 1 bytes @ 0x1
   610                           
   611                           
   612                           ; 1 bytes @ 0x1
   613  0071                     	ds	1
   614  0072                     ?_LCD_XY:
   615  0072                     ??_LCD_Cadena:	
   616                           ; 1 bytes @ 0x2
   617                           
   618  0072                     ??_LCD_Init:	
   619                           ; 1 bytes @ 0x2
   620                           
   621  0072                     ??__Umul8_16:	
   622                           ; 1 bytes @ 0x2
   623                           
   624  0072                     ??_I2C_Master_Write:	
   625                           ; 1 bytes @ 0x2
   626                           
   627  0072                     ??_I2C_Master_Read:	
   628                           ; 1 bytes @ 0x2
   629                           
   630  0072                     LCD_XY@y:	
   631                           ; 1 bytes @ 0x2
   632                           
   633  0072                     ___bmul@product:	
   634                           ; 1 bytes @ 0x2
   635                           
   636  0072                     ___wmul@multiplicand:	
   637                           ; 1 bytes @ 0x2
   638                           
   639                           
   640                           ; 2 bytes @ 0x2
   641  0072                     	ds	1
   642  0073                     ??_LCD_XY:
   643  0073                     LCD_XY@x:	
   644                           ; 1 bytes @ 0x3
   645                           
   646  0073                     LCD_Cadena@dato:	
   647                           ; 1 bytes @ 0x3
   648                           
   649  0073                     ___bmul@multiplier:	
   650                           ; 1 bytes @ 0x3
   651                           
   652                           
   653                           ; 1 bytes @ 0x3
   654  0073                     	ds	1
   655  0074                     ??___wmul:
   656  0074                     ??___xxtofl:	
   657                           ; 1 bytes @ 0x4
   658                           
   659  0074                     I2C_Master_Read@temp:	
   660                           ; 1 bytes @ 0x4
   661                           
   662  0074                     ___wmul@product:	
   663                           ; 2 bytes @ 0x4
   664                           
   665  0074                     __Umul8_16@product:	
   666                           ; 2 bytes @ 0x4
   667                           
   668  0074                     ___lldiv@dividend:	
   669                           ; 2 bytes @ 0x4
   670                           
   671                           
   672                           ; 4 bytes @ 0x4
   673  0074                     	ds	2
   674  0076                     ?___awdiv:
   675  0076                     ___awdiv@divisor:	
   676                           ; 2 bytes @ 0x6
   677                           
   678  0076                     __Umul8_16@word_mpld:	
   679                           ; 2 bytes @ 0x6
   680                           
   681                           
   682                           ; 2 bytes @ 0x6
   683  0076                     	ds	2
   684  0078                     ??___lldiv:
   685  0078                     __Umul8_16@multiplier:	
   686                           ; 1 bytes @ 0x8
   687                           
   688  0078                     ___xxtofl@sign:	
   689                           ; 1 bytes @ 0x8
   690                           
   691  0078                     ___awdiv@dividend:	
   692                           ; 1 bytes @ 0x8
   693                           
   694                           
   695                           ; 2 bytes @ 0x8
   696  0078                     	ds	1
   697  0079                     ___xxtofl@exp:
   698  0079                     ___lldiv@quotient:	
   699                           ; 1 bytes @ 0x9
   700                           
   701                           
   702                           ; 4 bytes @ 0x9
   703  0079                     	ds	1
   704  007A                     ??___awdiv:
   705  007A                     ___xxtofl@arg:	
   706                           ; 1 bytes @ 0xA
   707                           
   708                           
   709                           ; 4 bytes @ 0xA
   710  007A                     	ds	3
   711  007D                     ___lldiv@counter:
   712                           
   713                           ; 1 bytes @ 0xD
   714  007D                     	ds	1
   715  007E                     ??_setup:
   716                           
   717                           	psect	cstackBANK0
   718  0020                     __pcstackBANK0:	
   719                           ; 1 bytes @ 0xE
   720                           
   721  0020                     ?_I2C_Master_Init:
   722  0020                     ?___flmul:	
   723                           ; 1 bytes @ 0x0
   724                           
   725  0020                     ___awdiv@counter:	
   726                           ; 4 bytes @ 0x0
   727                           
   728  0020                     I2C_Master_Init@c:	
   729                           ; 1 bytes @ 0x0
   730                           
   731  0020                     ___flmul@b:	
   732                           ; 4 bytes @ 0x0
   733                           
   734                           
   735                           ; 4 bytes @ 0x0
   736  0020                     	ds	1
   737  0021                     ___awdiv@sign:
   738                           
   739                           ; 1 bytes @ 0x1
   740  0021                     	ds	1
   741  0022                     ___awdiv@quotient:
   742                           
   743                           ; 2 bytes @ 0x2
   744  0022                     	ds	2
   745  0024                     ??_I2C_Master_Init:
   746  0024                     ___flmul@a:	
   747                           ; 1 bytes @ 0x4
   748                           
   749                           
   750                           ; 4 bytes @ 0x4
   751  0024                     	ds	4
   752  0028                     ??___flmul:
   753                           
   754                           ; 1 bytes @ 0x8
   755  0028                     	ds	5
   756  002D                     ___flmul@sign:
   757                           
   758                           ; 1 bytes @ 0xD
   759  002D                     	ds	1
   760  002E                     ___flmul@grs:
   761                           
   762                           ; 4 bytes @ 0xE
   763  002E                     	ds	4
   764  0032                     ___flmul@aexp:
   765                           
   766                           ; 1 bytes @ 0x12
   767  0032                     	ds	1
   768  0033                     ___flmul@bexp:
   769                           
   770                           ; 1 bytes @ 0x13
   771  0033                     	ds	1
   772  0034                     ___flmul@prod:
   773                           
   774                           ; 4 bytes @ 0x14
   775  0034                     	ds	4
   776  0038                     ___flmul@temp:
   777                           
   778                           ; 2 bytes @ 0x18
   779  0038                     	ds	2
   780  003A                     ?___fldiv:
   781  003A                     ___fldiv@a:	
   782                           ; 4 bytes @ 0x1A
   783                           
   784                           
   785                           ; 4 bytes @ 0x1A
   786  003A                     	ds	4
   787  003E                     ___fldiv@b:
   788                           
   789                           ; 4 bytes @ 0x1E
   790  003E                     	ds	4
   791  0042                     ??___fldiv:
   792                           
   793                           ; 1 bytes @ 0x22
   794  0042                     	ds	5
   795  0047                     ___fldiv@rem:
   796                           
   797                           ; 4 bytes @ 0x27
   798  0047                     	ds	4
   799  004B                     ___fldiv@sign:
   800                           
   801                           ; 1 bytes @ 0x2B
   802  004B                     	ds	1
   803  004C                     ___fldiv@new_exp:
   804                           
   805                           ; 2 bytes @ 0x2C
   806  004C                     	ds	2
   807  004E                     ___fldiv@grs:
   808                           
   809                           ; 4 bytes @ 0x2E
   810  004E                     	ds	4
   811  0052                     ___fldiv@bexp:
   812                           
   813                           ; 1 bytes @ 0x32
   814  0052                     	ds	1
   815  0053                     ___fldiv@aexp:
   816                           
   817                           ; 1 bytes @ 0x33
   818  0053                     	ds	1
   819  0054                     ?___fladd:
   820  0054                     ___fladd@b:	
   821                           ; 4 bytes @ 0x34
   822                           
   823                           
   824                           ; 4 bytes @ 0x34
   825  0054                     	ds	4
   826  0058                     ___fladd@a:
   827                           
   828                           ; 4 bytes @ 0x38
   829  0058                     	ds	4
   830  005C                     ??___fladd:
   831                           
   832                           ; 1 bytes @ 0x3C
   833  005C                     	ds	8
   834  0064                     ___fladd@signs:
   835                           
   836                           ; 1 bytes @ 0x44
   837  0064                     	ds	1
   838  0065                     ___fladd@aexp:
   839                           
   840                           ; 1 bytes @ 0x45
   841  0065                     	ds	1
   842  0066                     ___fladd@bexp:
   843                           
   844                           ; 1 bytes @ 0x46
   845  0066                     	ds	1
   846  0067                     ___fladd@grs:
   847                           
   848                           ; 1 bytes @ 0x47
   849  0067                     	ds	1
   850  0068                     ?___fltol:
   851  0068                     ___fltol@f1:	
   852                           ; 4 bytes @ 0x48
   853                           
   854                           
   855                           ; 4 bytes @ 0x48
   856  0068                     	ds	4
   857  006C                     ___fltol@sign1:
   858                           
   859                           ; 1 bytes @ 0x4C
   860  006C                     	ds	1
   861  006D                     ___fltol@exp1:
   862                           
   863                           ; 1 bytes @ 0x4D
   864  006D                     	ds	1
   865                           
   866                           	psect	maintext
   867  043E                     __pmaintext:	
   868 ;;
   869 ;;Main: autosize = 0, tempsize = 4, incstack = 0, save=0
   870 ;;
   871 ;; *************** function _main *****************
   872 ;; Defined at:
   873 ;;		line 34 in file "Master.c"
   874 ;; Parameters:    Size  Location     Type
   875 ;;		None
   876 ;; Auto vars:     Size  Location     Type
   877 ;;		None
   878 ;; Return value:  Size  Location     Type
   879 ;;                  1    wreg      void 
   880 ;; Registers used:
   881 ;;		wreg, fsr0l, fsr0h, status,2, status,0, btemp+1, pclath, cstack
   882 ;; Tracked objects:
   883 ;;		On entry : B00/0
   884 ;;		On exit  : 0/0
   885 ;;		Unchanged: 0/0
   886 ;; Data sizes:     COMMON   BANK0   BANK1   BANK3   BANK2
   887 ;;      Params:         0       0       0       0       0
   888 ;;      Locals:         0       0       0       0       0
   889 ;;      Temps:          0       0       4       0       0
   890 ;;      Totals:         0       0       4       0       0
   891 ;;Total ram usage:        4 bytes
   892 ;; Hardware stack levels required when called:    3
   893 ;; This function calls:
   894 ;;		_I2C_Master_Read
   895 ;;		_I2C_Master_Start
   896 ;;		_I2C_Master_Stop
   897 ;;		_I2C_Master_Write
   898 ;;		_LCD_Cadena
   899 ;;		_LCD_Data
   900 ;;		_LCD_XY
   901 ;;		___awdiv
   902 ;;		___bmul
   903 ;;		___fladd
   904 ;;		___fldiv
   905 ;;		___flmul
   906 ;;		___fltol
   907 ;;		___wmul
   908 ;;		___xxtofl
   909 ;;		_setup
   910 ;; This function is called by:
   911 ;;		Startup code after reset
   912 ;; This function uses a non-reentrant model
   913 ;;
   914                           
   915                           
   916                           ;psect for function _main
   917  043E                     _main:
   918  043E                     l2500:	
   919                           ;incstack = 0
   920                           ; Regs used in _main: [wreg-fsr0h+status,2+status,0+btemp+1+pclath+cstack]
   921                           
   922                           
   923                           ;Master.c: 35:     setup();
   924  043E  120A  158A  217A  120A  118A  	fcall	_setup
   925  0443                     l124:	
   926                           ;Master.c: 37:     while(1){
   927                           
   928                           
   929                           ;Master.c: 39:         I2C_Master_Start();
   930  0443  120A  158A  2038  120A  118A  	fcall	_I2C_Master_Start
   931                           
   932                           ;Master.c: 48:         I2C_Master_Write(0x51);
   933  0448  3051               	movlw	81
   934  0449  00F0               	movwf	I2C_Master_Write@d
   935  044A  3000               	movlw	0
   936  044B  00F1               	movwf	I2C_Master_Write@d+1
   937  044C  120A  158A  204A  120A  118A  	fcall	_I2C_Master_Write
   938                           
   939                           ;Master.c: 49:         ADC = I2C_Master_Read(0);
   940  0451  3000               	movlw	0
   941  0452  00F0               	movwf	I2C_Master_Read@a
   942  0453  00F1               	movwf	I2C_Master_Read@a+1
   943  0454  120A  158A  2114  120A  118A  	fcall	_I2C_Master_Read
   944  0459  0871               	movf	?_I2C_Master_Read+1,w
   945  045A  1683               	bsf	3,5	;RP0=1, select bank1
   946  045B  1303               	bcf	3,6	;RP1=0, select bank1
   947  045C  00A3               	movwf	(_ADC+1)^(0+128)
   948  045D  0870               	movf	?_I2C_Master_Read,w
   949  045E  00A2               	movwf	_ADC^(0+128)
   950                           
   951                           ;Master.c: 50:         I2C_Master_Stop();
   952  045F  120A  158A  2041  120A  118A  	fcall	_I2C_Master_Stop
   953  0464                     l2502:
   954                           
   955                           ;Master.c: 51:         _delay((unsigned long)((200)*(8000000/4000.0)));
   956  0464  3003               	movlw	3
   957  0465  1683               	bsf	3,5	;RP0=1, select bank1
   958  0466  1303               	bcf	3,6	;RP1=0, select bank1
   959  0467  00B4               	movwf	(??_main^(0+128)+2)
   960  0468  3008               	movlw	8
   961  0469  00B3               	movwf	(??_main^(0+128)+1)
   962  046A  3076               	movlw	118
   963  046B  00B2               	movwf	??_main^(0+128)
   964  046C                     u3397:
   965  046C  0BB2               	decfsz	??_main^(0+128),f
   966  046D  2C6C               	goto	u3397
   967  046E  0BB3               	decfsz	(??_main^(0+128)+1),f
   968  046F  2C6C               	goto	u3397
   969  0470  0BB4               	decfsz	(??_main^(0+128)+2),f
   970  0471  2C6C               	goto	u3397
   971  0472  0000               	nop
   972  0473                     l2504:
   973                           
   974                           ;Master.c: 53:         I2C_Master_Start();
   975  0473  120A  158A  2038  120A  118A  	fcall	_I2C_Master_Start
   976  0478                     l2506:
   977                           
   978                           ;Master.c: 54:         I2C_Master_Write(0x41);
   979  0478  3041               	movlw	65
   980  0479  00F0               	movwf	I2C_Master_Write@d
   981  047A  3000               	movlw	0
   982  047B  00F1               	movwf	I2C_Master_Write@d+1
   983  047C  120A  158A  204A  120A  118A  	fcall	_I2C_Master_Write
   984  0481                     l2508:
   985                           
   986                           ;Master.c: 55:         CONT = I2C_Master_Read(0);
   987  0481  3000               	movlw	0
   988  0482  00F0               	movwf	I2C_Master_Read@a
   989  0483  00F1               	movwf	I2C_Master_Read@a+1
   990  0484  120A  158A  2114  120A  118A  	fcall	_I2C_Master_Read
   991  0489  0871               	movf	?_I2C_Master_Read+1,w
   992  048A  1683               	bsf	3,5	;RP0=1, select bank1
   993  048B  1303               	bcf	3,6	;RP1=0, select bank1
   994  048C  00A1               	movwf	(_CONT+1)^(0+128)
   995  048D  0870               	movf	?_I2C_Master_Read,w
   996  048E  00A0               	movwf	_CONT^(0+128)
   997  048F                     l2510:
   998                           
   999                           ;Master.c: 56:         I2C_Master_Stop();
  1000  048F  120A  158A  2041  120A  118A  	fcall	_I2C_Master_Stop
  1001  0494                     l2512:
  1002                           
  1003                           ;Master.c: 57:         _delay((unsigned long)((200)*(8000000/4000.0)));
  1004  0494  3003               	movlw	3
  1005  0495  1683               	bsf	3,5	;RP0=1, select bank1
  1006  0496  1303               	bcf	3,6	;RP1=0, select bank1
  1007  0497  00B4               	movwf	(??_main^(0+128)+2)
  1008  0498  3008               	movlw	8
  1009  0499  00B3               	movwf	(??_main^(0+128)+1)
  1010  049A  3076               	movlw	118
  1011  049B  00B2               	movwf	??_main^(0+128)
  1012  049C                     u3407:
  1013  049C  0BB2               	decfsz	??_main^(0+128),f
  1014  049D  2C9C               	goto	u3407
  1015  049E  0BB3               	decfsz	(??_main^(0+128)+1),f
  1016  049F  2C9C               	goto	u3407
  1017  04A0  0BB4               	decfsz	(??_main^(0+128)+2),f
  1018  04A1  2C9C               	goto	u3407
  1019  04A2  0000               	nop
  1020                           
  1021                           ;Master.c: 59:         I2C_Master_Start();
  1022  04A3  120A  158A  2038  120A  118A  	fcall	_I2C_Master_Start
  1023                           
  1024                           ;Master.c: 60:         I2C_Master_Write(0x80);
  1025  04A8  3080               	movlw	128
  1026  04A9  00F0               	movwf	I2C_Master_Write@d
  1027  04AA  3000               	movlw	0
  1028  04AB  00F1               	movwf	I2C_Master_Write@d+1
  1029  04AC  120A  158A  204A  120A  118A  	fcall	_I2C_Master_Write
  1030                           
  1031                           ;Master.c: 61:         I2C_Master_Write(0xF3);
  1032  04B1  30F3               	movlw	243
  1033  04B2  00F0               	movwf	I2C_Master_Write@d
  1034  04B3  3000               	movlw	0
  1035  04B4  00F1               	movwf	I2C_Master_Write@d+1
  1036  04B5  120A  158A  204A  120A  118A  	fcall	_I2C_Master_Write
  1037                           
  1038                           ;Master.c: 62:         I2C_Master_Stop();
  1039  04BA  120A  158A  2041  120A  118A  	fcall	_I2C_Master_Stop
  1040  04BF                     l2514:
  1041                           
  1042                           ;Master.c: 63:         _delay((unsigned long)((200)*(8000000/4000.0)));
  1043  04BF  3003               	movlw	3
  1044  04C0  1683               	bsf	3,5	;RP0=1, select bank1
  1045  04C1  1303               	bcf	3,6	;RP1=0, select bank1
  1046  04C2  00B4               	movwf	(??_main^(0+128)+2)
  1047  04C3  3008               	movlw	8
  1048  04C4  00B3               	movwf	(??_main^(0+128)+1)
  1049  04C5  3076               	movlw	118
  1050  04C6  00B2               	movwf	??_main^(0+128)
  1051  04C7                     u3417:
  1052  04C7  0BB2               	decfsz	??_main^(0+128),f
  1053  04C8  2CC7               	goto	u3417
  1054  04C9  0BB3               	decfsz	(??_main^(0+128)+1),f
  1055  04CA  2CC7               	goto	u3417
  1056  04CB  0BB4               	decfsz	(??_main^(0+128)+2),f
  1057  04CC  2CC7               	goto	u3417
  1058  04CD  0000               	nop
  1059  04CE                     l2516:
  1060                           
  1061                           ;Master.c: 64:         I2C_Master_Start();
  1062  04CE  120A  158A  2038  120A  118A  	fcall	_I2C_Master_Start
  1063  04D3                     l2518:
  1064                           
  1065                           ;Master.c: 65:         I2C_Master_Write(0x81);
  1066  04D3  3081               	movlw	129
  1067  04D4  00F0               	movwf	I2C_Master_Write@d
  1068  04D5  3000               	movlw	0
  1069  04D6  00F1               	movwf	I2C_Master_Write@d+1
  1070  04D7  120A  158A  204A  120A  118A  	fcall	_I2C_Master_Write
  1071  04DC                     l2520:
  1072                           
  1073                           ;Master.c: 66:         TEMP = ((I2C_Master_Read(0))<<8);
  1074  04DC  3000               	movlw	0
  1075  04DD  00F0               	movwf	I2C_Master_Read@a
  1076  04DE  00F1               	movwf	I2C_Master_Read@a+1
  1077  04DF  120A  158A  2114  120A  118A  	fcall	_I2C_Master_Read
  1078  04E4  0870               	movf	?_I2C_Master_Read,w
  1079  04E5  1683               	bsf	3,5	;RP0=1, select bank1
  1080  04E6  1303               	bcf	3,6	;RP1=0, select bank1
  1081  04E7  00B3               	movwf	(??_main^(0+128)+1)
  1082  04E8  01B2               	clrf	??_main^(0+128)
  1083  04E9  0832               	movf	??_main^(0+128),w
  1084  04EA  1283               	bcf	3,5	;RP0=0, select bank0
  1085  04EB  1303               	bcf	3,6	;RP1=0, select bank0
  1086  04EC  00EE               	movwf	_TEMP
  1087  04ED  1683               	bsf	3,5	;RP0=1, select bank1
  1088  04EE  1303               	bcf	3,6	;RP1=0, select bank1
  1089  04EF  0833               	movf	(??_main+1)^(0+128),w
  1090  04F0  1283               	bcf	3,5	;RP0=0, select bank0
  1091  04F1  1303               	bcf	3,6	;RP1=0, select bank0
  1092  04F2  00EF               	movwf	_TEMP+1
  1093  04F3                     l2522:
  1094                           
  1095                           ;Master.c: 67:         TEMP += I2C_Master_Read(0);
  1096  04F3  3000               	movlw	0
  1097  04F4  00F0               	movwf	I2C_Master_Read@a
  1098  04F5  00F1               	movwf	I2C_Master_Read@a+1
  1099  04F6  120A  158A  2114  120A  118A  	fcall	_I2C_Master_Read
  1100  04FB  0870               	movf	?_I2C_Master_Read,w
  1101  04FC  1283               	bcf	3,5	;RP0=0, select bank0
  1102  04FD  1303               	bcf	3,6	;RP1=0, select bank0
  1103  04FE  07EE               	addwf	_TEMP,f
  1104  04FF  1803               	skipnc
  1105  0500  0AEF               	incf	_TEMP+1,f
  1106  0501  0871               	movf	?_I2C_Master_Read+1,w
  1107  0502  07EF               	addwf	_TEMP+1,f
  1108  0503                     l2524:
  1109                           
  1110                           ;Master.c: 68:         I2C_Master_Stop();
  1111  0503  120A  158A  2041  120A  118A  	fcall	_I2C_Master_Stop
  1112                           
  1113                           ;Master.c: 69:         _delay((unsigned long)((200)*(8000000/4000.0)));
  1114  0508  3003               	movlw	3
  1115  0509  1683               	bsf	3,5	;RP0=1, select bank1
  1116  050A  1303               	bcf	3,6	;RP1=0, select bank1
  1117  050B  00B4               	movwf	(??_main^(0+128)+2)
  1118  050C  3008               	movlw	8
  1119  050D  00B3               	movwf	(??_main^(0+128)+1)
  1120  050E  3076               	movlw	118
  1121  050F  00B2               	movwf	??_main^(0+128)
  1122  0510                     u3427:
  1123  0510  0BB2               	decfsz	??_main^(0+128),f
  1124  0511  2D10               	goto	u3427
  1125  0512  0BB3               	decfsz	(??_main^(0+128)+1),f
  1126  0513  2D10               	goto	u3427
  1127  0514  0BB4               	decfsz	(??_main^(0+128)+2),f
  1128  0515  2D10               	goto	u3427
  1129  0516  0000               	nop
  1130                           
  1131                           ;Master.c: 71:         TEMP &= ~0x03;
  1132  0517  30FC               	movlw	252
  1133  0518  1283               	bcf	3,5	;RP0=0, select bank0
  1134  0519  1303               	bcf	3,6	;RP1=0, select bank0
  1135  051A  05EE               	andwf	_TEMP,f
  1136  051B  30FF               	movlw	255
  1137  051C  05EF               	andwf	_TEMP+1,f
  1138  051D                     l2526:
  1139                           
  1140                           ;Master.c: 72:         TEMP = ((175.72 * TEMP)/65536) - 46.85;
  1141  051D  086E               	movf	_TEMP,w
  1142  051E  00F0               	movwf	___xxtofl@val
  1143  051F  086F               	movf	_TEMP+1,w
  1144  0520  00F1               	movwf	___xxtofl@val+1
  1145  0521  3000               	movlw	0
  1146  0522  1BF1               	btfsc	___xxtofl@val+1,7
  1147  0523  30FF               	movlw	255
  1148  0524  00F2               	movwf	___xxtofl@val+2
  1149  0525  00F3               	movwf	___xxtofl@val+3
  1150  0526  3001               	movlw	1
  1151  0527  120A  118A  2023  120A  118A  	fcall	___xxtofl
  1152  052C  0873               	movf	?___xxtofl+3,w
  1153  052D  1283               	bcf	3,5	;RP0=0, select bank0
  1154  052E  1303               	bcf	3,6	;RP1=0, select bank0
  1155  052F  00A7               	movwf	___flmul@a+3
  1156  0530  0872               	movf	?___xxtofl+2,w
  1157  0531  00A6               	movwf	___flmul@a+2
  1158  0532  0871               	movf	?___xxtofl+1,w
  1159  0533  00A5               	movwf	___flmul@a+1
  1160  0534  0870               	movf	?___xxtofl,w
  1161  0535  00A4               	movwf	___flmul@a
  1162  0536  3043               	movlw	67
  1163  0537  00A3               	movwf	___flmul@b+3
  1164  0538  302F               	movlw	47
  1165  0539  00A2               	movwf	___flmul@b+2
  1166  053A  30B8               	movlw	184
  1167  053B  00A1               	movwf	___flmul@b+1
  1168  053C  3052               	movlw	82
  1169  053D  00A0               	movwf	___flmul@b
  1170  053E  120A  118A  20DD  120A  118A  	fcall	___flmul
  1171  0543  1283               	bcf	3,5	;RP0=0, select bank0
  1172  0544  1303               	bcf	3,6	;RP1=0, select bank0
  1173  0545  0823               	movf	?___flmul+3,w
  1174  0546  00C1               	movwf	___fldiv@b+3
  1175  0547  0822               	movf	?___flmul+2,w
  1176  0548  00C0               	movwf	___fldiv@b+2
  1177  0549  0821               	movf	?___flmul+1,w
  1178  054A  00BF               	movwf	___fldiv@b+1
  1179  054B  0820               	movf	?___flmul,w
  1180  054C  00BE               	movwf	___fldiv@b
  1181  054D  3047               	movlw	71
  1182  054E  00BD               	movwf	___fldiv@a+3
  1183  054F  3080               	movlw	128
  1184  0550  00BC               	movwf	___fldiv@a+2
  1185  0551  3000               	movlw	0
  1186  0552  00BB               	movwf	___fldiv@a+1
  1187  0553  3000               	movlw	0
  1188  0554  00BA               	movwf	___fldiv@a
  1189  0555  120A  158A  239B  120A  118A  	fcall	___fldiv
  1190  055A  1283               	bcf	3,5	;RP0=0, select bank0
  1191  055B  1303               	bcf	3,6	;RP1=0, select bank0
  1192  055C  083D               	movf	?___fldiv+3,w
  1193  055D  00DB               	movwf	___fladd@a+3
  1194  055E  083C               	movf	?___fldiv+2,w
  1195  055F  00DA               	movwf	___fladd@a+2
  1196  0560  083B               	movf	?___fldiv+1,w
  1197  0561  00D9               	movwf	___fladd@a+1
  1198  0562  083A               	movf	?___fldiv,w
  1199  0563  00D8               	movwf	___fladd@a
  1200  0564  30C2               	movlw	194
  1201  0565  00D7               	movwf	___fladd@b+3
  1202  0566  303B               	movlw	59
  1203  0567  00D6               	movwf	___fladd@b+2
  1204  0568  3066               	movlw	102
  1205  0569  00D5               	movwf	___fladd@b+1
  1206  056A  3066               	movlw	102
  1207  056B  00D4               	movwf	___fladd@b
  1208  056C  120A  158A  2578  120A  118A  	fcall	___fladd
  1209  0571  1283               	bcf	3,5	;RP0=0, select bank0
  1210  0572  1303               	bcf	3,6	;RP1=0, select bank0
  1211  0573  0857               	movf	?___fladd+3,w
  1212  0574  00EB               	movwf	___fltol@f1+3
  1213  0575  0856               	movf	?___fladd+2,w
  1214  0576  00EA               	movwf	___fltol@f1+2
  1215  0577  0855               	movf	?___fladd+1,w
  1216  0578  00E9               	movwf	___fltol@f1+1
  1217  0579  0854               	movf	?___fladd,w
  1218  057A  00E8               	movwf	___fltol@f1
  1219  057B  120A  158A  22FF  120A  118A  	fcall	___fltol
  1220  0580  1283               	bcf	3,5	;RP0=0, select bank0
  1221  0581  1303               	bcf	3,6	;RP1=0, select bank0
  1222  0582  0869               	movf	?___fltol+1,w
  1223  0583  00EF               	movwf	_TEMP+1
  1224  0584  0868               	movf	?___fltol,w
  1225  0585  00EE               	movwf	_TEMP
  1226  0586                     l2528:
  1227                           
  1228                           ;Master.c: 74:         ADC = ADC * 1.97;
  1229  0586  1683               	bsf	3,5	;RP0=1, select bank1
  1230  0587  1303               	bcf	3,6	;RP1=0, select bank1
  1231  0588  0822               	movf	_ADC^(0+128),w
  1232  0589  00F0               	movwf	___xxtofl@val
  1233  058A  0823               	movf	(_ADC+1)^(0+128),w
  1234  058B  00F1               	movwf	___xxtofl@val+1
  1235  058C  3000               	movlw	0
  1236  058D  1BF1               	btfsc	___xxtofl@val+1,7
  1237  058E  30FF               	movlw	255
  1238  058F  00F2               	movwf	___xxtofl@val+2
  1239  0590  00F3               	movwf	___xxtofl@val+3
  1240  0591  3001               	movlw	1
  1241  0592  120A  118A  2023  120A  118A  	fcall	___xxtofl
  1242  0597  0873               	movf	?___xxtofl+3,w
  1243  0598  1283               	bcf	3,5	;RP0=0, select bank0
  1244  0599  1303               	bcf	3,6	;RP1=0, select bank0
  1245  059A  00A7               	movwf	___flmul@a+3
  1246  059B  0872               	movf	?___xxtofl+2,w
  1247  059C  00A6               	movwf	___flmul@a+2
  1248  059D  0871               	movf	?___xxtofl+1,w
  1249  059E  00A5               	movwf	___flmul@a+1
  1250  059F  0870               	movf	?___xxtofl,w
  1251  05A0  00A4               	movwf	___flmul@a
  1252  05A1  303F               	movlw	63
  1253  05A2  00A3               	movwf	___flmul@b+3
  1254  05A3  30FC               	movlw	252
  1255  05A4  00A2               	movwf	___flmul@b+2
  1256  05A5  3028               	movlw	40
  1257  05A6  00A1               	movwf	___flmul@b+1
  1258  05A7  30F6               	movlw	246
  1259  05A8  00A0               	movwf	___flmul@b
  1260  05A9  120A  118A  20DD  120A  118A  	fcall	___flmul
  1261  05AE  1283               	bcf	3,5	;RP0=0, select bank0
  1262  05AF  1303               	bcf	3,6	;RP1=0, select bank0
  1263  05B0  0823               	movf	?___flmul+3,w
  1264  05B1  00EB               	movwf	___fltol@f1+3
  1265  05B2  0822               	movf	?___flmul+2,w
  1266  05B3  00EA               	movwf	___fltol@f1+2
  1267  05B4  0821               	movf	?___flmul+1,w
  1268  05B5  00E9               	movwf	___fltol@f1+1
  1269  05B6  0820               	movf	?___flmul,w
  1270  05B7  00E8               	movwf	___fltol@f1
  1271  05B8  120A  158A  22FF  120A  118A  	fcall	___fltol
  1272  05BD  1283               	bcf	3,5	;RP0=0, select bank0
  1273  05BE  1303               	bcf	3,6	;RP1=0, select bank0
  1274  05BF  0869               	movf	?___fltol+1,w
  1275  05C0  1683               	bsf	3,5	;RP0=1, select bank1
  1276  05C1  1303               	bcf	3,6	;RP1=0, select bank1
  1277  05C2  00A3               	movwf	(_ADC+1)^(0+128)
  1278  05C3  1283               	bcf	3,5	;RP0=0, select bank0
  1279  05C4  1303               	bcf	3,6	;RP1=0, select bank0
  1280  05C5  0868               	movf	?___fltol,w
  1281  05C6  1683               	bsf	3,5	;RP0=1, select bank1
  1282  05C7  1303               	bcf	3,6	;RP1=0, select bank1
  1283  05C8  00A2               	movwf	_ADC^(0+128)
  1284  05C9                     l2530:
  1285                           
  1286                           ;Master.c: 75:         CONT = CONT * 33.33;
  1287  05C9  0820               	movf	_CONT^(0+128),w
  1288  05CA  00F0               	movwf	___xxtofl@val
  1289  05CB  0821               	movf	(_CONT+1)^(0+128),w
  1290  05CC  00F1               	movwf	___xxtofl@val+1
  1291  05CD  3000               	movlw	0
  1292  05CE  1BF1               	btfsc	___xxtofl@val+1,7
  1293  05CF  30FF               	movlw	255
  1294  05D0  00F2               	movwf	___xxtofl@val+2
  1295  05D1  00F3               	movwf	___xxtofl@val+3
  1296  05D2  3001               	movlw	1
  1297  05D3  120A  118A  2023  120A  118A  	fcall	___xxtofl
  1298  05D8  0873               	movf	?___xxtofl+3,w
  1299  05D9  1283               	bcf	3,5	;RP0=0, select bank0
  1300  05DA  1303               	bcf	3,6	;RP1=0, select bank0
  1301  05DB  00A7               	movwf	___flmul@a+3
  1302  05DC  0872               	movf	?___xxtofl+2,w
  1303  05DD  00A6               	movwf	___flmul@a+2
  1304  05DE  0871               	movf	?___xxtofl+1,w
  1305  05DF  00A5               	movwf	___flmul@a+1
  1306  05E0  0870               	movf	?___xxtofl,w
  1307  05E1  00A4               	movwf	___flmul@a
  1308  05E2  3042               	movlw	66
  1309  05E3  00A3               	movwf	___flmul@b+3
  1310  05E4  3005               	movlw	5
  1311  05E5  00A2               	movwf	___flmul@b+2
  1312  05E6  3051               	movlw	81
  1313  05E7  00A1               	movwf	___flmul@b+1
  1314  05E8  30EC               	movlw	236
  1315  05E9  00A0               	movwf	___flmul@b
  1316  05EA  120A  118A  20DD  120A  118A  	fcall	___flmul
  1317  05EF  1283               	bcf	3,5	;RP0=0, select bank0
  1318  05F0  1303               	bcf	3,6	;RP1=0, select bank0
  1319  05F1  0823               	movf	?___flmul+3,w
  1320  05F2  00EB               	movwf	___fltol@f1+3
  1321  05F3  0822               	movf	?___flmul+2,w
  1322  05F4  00EA               	movwf	___fltol@f1+2
  1323  05F5  0821               	movf	?___flmul+1,w
  1324  05F6  00E9               	movwf	___fltol@f1+1
  1325  05F7  0820               	movf	?___flmul,w
  1326  05F8  00E8               	movwf	___fltol@f1
  1327  05F9  120A  158A  22FF  120A  118A  	fcall	___fltol
  1328  05FE  1283               	bcf	3,5	;RP0=0, select bank0
  1329  05FF  1303               	bcf	3,6	;RP1=0, select bank0
  1330  0600  0869               	movf	?___fltol+1,w
  1331  0601  1683               	bsf	3,5	;RP0=1, select bank1
  1332  0602  1303               	bcf	3,6	;RP1=0, select bank1
  1333  0603  00A1               	movwf	(_CONT+1)^(0+128)
  1334  0604  1283               	bcf	3,5	;RP0=0, select bank0
  1335  0605  1303               	bcf	3,6	;RP1=0, select bank0
  1336  0606  0868               	movf	?___fltol,w
  1337  0607  1683               	bsf	3,5	;RP0=1, select bank1
  1338  0608  1303               	bcf	3,6	;RP1=0, select bank1
  1339  0609  00A0               	movwf	_CONT^(0+128)
  1340  060A                     l2532:
  1341                           
  1342                           ;Master.c: 77:         centena = (ADC /100) + 48;
  1343  060A  3064               	movlw	100
  1344  060B  00F6               	movwf	___awdiv@divisor
  1345  060C  3000               	movlw	0
  1346  060D  00F7               	movwf	___awdiv@divisor+1
  1347  060E  0823               	movf	(_ADC+1)^(0+128),w
  1348  060F  00F9               	movwf	___awdiv@dividend+1
  1349  0610  0822               	movf	_ADC^(0+128),w
  1350  0611  00F8               	movwf	___awdiv@dividend
  1351  0612  120A  158A  221C  120A  118A  	fcall	___awdiv
  1352  0617  0876               	movf	?___awdiv,w
  1353  0618  3E30               	addlw	48
  1354  0619  1683               	bsf	3,5	;RP0=1, select bank1
  1355  061A  1303               	bcf	3,6	;RP1=0, select bank1
  1356  061B  00B2               	movwf	??_main^(0+128)
  1357  061C  0832               	movf	??_main^(0+128),w
  1358  061D  00AC               	movwf	_centena^(0+128)
  1359  061E                     l2534:
  1360                           
  1361                           ;Master.c: 78:         decena = ((ADC - (centena*100)) / 10) - 16;
  1362  061E  300A               	movlw	10
  1363  061F  00F6               	movwf	___awdiv@divisor
  1364  0620  3000               	movlw	0
  1365  0621  00F7               	movwf	___awdiv@divisor+1
  1366  0622  082C               	movf	_centena^(0+128),w
  1367  0623  00B2               	movwf	??_main^(0+128)
  1368  0624  01B3               	clrf	(??_main^(0+128)+1)
  1369  0625  0832               	movf	??_main^(0+128),w
  1370  0626  00F0               	movwf	___wmul@multiplier
  1371  0627  0833               	movf	(??_main+1)^(0+128),w
  1372  0628  00F1               	movwf	___wmul@multiplier+1
  1373  0629  309C               	movlw	156
  1374  062A  00F2               	movwf	___wmul@multiplicand
  1375  062B  30FF               	movlw	255
  1376  062C  00F3               	movwf	___wmul@multiplicand+1
  1377  062D  120A  158A  20C8  120A  118A  	fcall	___wmul
  1378  0632  1683               	bsf	3,5	;RP0=1, select bank1
  1379  0633  1303               	bcf	3,6	;RP1=0, select bank1
  1380  0634  0822               	movf	_ADC^(0+128),w
  1381  0635  0770               	addwf	?___wmul,w
  1382  0636  00F8               	movwf	___awdiv@dividend
  1383  0637  0823               	movf	(_ADC+1)^(0+128),w
  1384  0638  1803               	skipnc
  1385  0639  0A23               	incf	(_ADC+1)^(0+128),w
  1386  063A  0771               	addwf	?___wmul+1,w
  1387  063B  00F9               	movwf	___awdiv@dividend+1
  1388  063C  120A  158A  221C  120A  118A  	fcall	___awdiv
  1389  0641  0876               	movf	?___awdiv,w
  1390  0642  3EF0               	addlw	240
  1391  0643  1683               	bsf	3,5	;RP0=1, select bank1
  1392  0644  1303               	bcf	3,6	;RP1=0, select bank1
  1393  0645  00B4               	movwf	(??_main+2)^(0+128)
  1394  0646  0834               	movf	(??_main+2)^(0+128),w
  1395  0647  00AB               	movwf	_decena^(0+128)
  1396  0648                     l2536:
  1397                           
  1398                           ;Master.c: 79:         unidad = ((ADC - (centena*100)) - (decena*10)) - 48;
  1399  0648  309C               	movlw	156
  1400  0649  00B2               	movwf	??_main^(0+128)
  1401  064A  0832               	movf	??_main^(0+128),w
  1402  064B  00F0               	movwf	___bmul@multiplicand
  1403  064C  082C               	movf	_centena^(0+128),w
  1404  064D  120A  158A  2061  120A  118A  	fcall	___bmul
  1405  0652  1683               	bsf	3,5	;RP0=1, select bank1
  1406  0653  1303               	bcf	3,6	;RP1=0, select bank1
  1407  0654  00B3               	movwf	(??_main+1)^(0+128)
  1408  0655  30F6               	movlw	246
  1409  0656  00B4               	movwf	(??_main+2)^(0+128)
  1410  0657  0834               	movf	(??_main+2)^(0+128),w
  1411  0658  00F0               	movwf	___bmul@multiplicand
  1412  0659  082B               	movf	_decena^(0+128),w
  1413  065A  120A  158A  2061  120A  118A  	fcall	___bmul
  1414  065F  1683               	bsf	3,5	;RP0=1, select bank1
  1415  0660  1303               	bcf	3,6	;RP1=0, select bank1
  1416  0661  0733               	addwf	(??_main+1)^(0+128),w
  1417  0662  0722               	addwf	_ADC^(0+128),w
  1418  0663  3ED0               	addlw	208
  1419  0664  00B5               	movwf	(??_main+3)^(0+128)
  1420  0665  0835               	movf	(??_main+3)^(0+128),w
  1421  0666  00AA               	movwf	_unidad^(0+128)
  1422  0667                     l2538:
  1423                           
  1424                           ;Master.c: 81:         centena1 = (CONT /100) + 48;
  1425  0667  3064               	movlw	100
  1426  0668  00F6               	movwf	___awdiv@divisor
  1427  0669  3000               	movlw	0
  1428  066A  00F7               	movwf	___awdiv@divisor+1
  1429  066B  0821               	movf	(_CONT+1)^(0+128),w
  1430  066C  00F9               	movwf	___awdiv@dividend+1
  1431  066D  0820               	movf	_CONT^(0+128),w
  1432  066E  00F8               	movwf	___awdiv@dividend
  1433  066F  120A  158A  221C  120A  118A  	fcall	___awdiv
  1434  0674  0876               	movf	?___awdiv,w
  1435  0675  3E30               	addlw	48
  1436  0676  1683               	bsf	3,5	;RP0=1, select bank1
  1437  0677  1303               	bcf	3,6	;RP1=0, select bank1
  1438  0678  00B2               	movwf	??_main^(0+128)
  1439  0679  0832               	movf	??_main^(0+128),w
  1440  067A  00A9               	movwf	_centena1^(0+128)
  1441  067B                     l2540:
  1442                           
  1443                           ;Master.c: 82:         decena1 = ((CONT - (centena1*100)) / 10) + 48;
  1444  067B  300A               	movlw	10
  1445  067C  00F6               	movwf	___awdiv@divisor
  1446  067D  3000               	movlw	0
  1447  067E  00F7               	movwf	___awdiv@divisor+1
  1448  067F  0829               	movf	_centena1^(0+128),w
  1449  0680  00B2               	movwf	??_main^(0+128)
  1450  0681  01B3               	clrf	(??_main^(0+128)+1)
  1451  0682  0832               	movf	??_main^(0+128),w
  1452  0683  00F0               	movwf	___wmul@multiplier
  1453  0684  0833               	movf	(??_main+1)^(0+128),w
  1454  0685  00F1               	movwf	___wmul@multiplier+1
  1455  0686  309C               	movlw	156
  1456  0687  00F2               	movwf	___wmul@multiplicand
  1457  0688  30FF               	movlw	255
  1458  0689  00F3               	movwf	___wmul@multiplicand+1
  1459  068A  120A  158A  20C8  120A  118A  	fcall	___wmul
  1460  068F  1683               	bsf	3,5	;RP0=1, select bank1
  1461  0690  1303               	bcf	3,6	;RP1=0, select bank1
  1462  0691  0820               	movf	_CONT^(0+128),w
  1463  0692  0770               	addwf	?___wmul,w
  1464  0693  00F8               	movwf	___awdiv@dividend
  1465  0694  0821               	movf	(_CONT+1)^(0+128),w
  1466  0695  1803               	skipnc
  1467  0696  0A21               	incf	(_CONT+1)^(0+128),w
  1468  0697  0771               	addwf	?___wmul+1,w
  1469  0698  00F9               	movwf	___awdiv@dividend+1
  1470  0699  120A  158A  221C  120A  118A  	fcall	___awdiv
  1471  069E  0876               	movf	?___awdiv,w
  1472  069F  3E30               	addlw	48
  1473  06A0  1683               	bsf	3,5	;RP0=1, select bank1
  1474  06A1  1303               	bcf	3,6	;RP1=0, select bank1
  1475  06A2  00B4               	movwf	(??_main+2)^(0+128)
  1476  06A3  0834               	movf	(??_main+2)^(0+128),w
  1477  06A4  00A8               	movwf	_decena1^(0+128)
  1478  06A5                     l2542:
  1479                           
  1480                           ;Master.c: 83:         unidad1 = ((CONT - (centena1*100)) - (decena1*10)) +48;
  1481  06A5  309C               	movlw	156
  1482  06A6  00B2               	movwf	??_main^(0+128)
  1483  06A7  0832               	movf	??_main^(0+128),w
  1484  06A8  00F0               	movwf	___bmul@multiplicand
  1485  06A9  0829               	movf	_centena1^(0+128),w
  1486  06AA  120A  158A  2061  120A  118A  	fcall	___bmul
  1487  06AF  1683               	bsf	3,5	;RP0=1, select bank1
  1488  06B0  1303               	bcf	3,6	;RP1=0, select bank1
  1489  06B1  00B3               	movwf	(??_main+1)^(0+128)
  1490  06B2  30F6               	movlw	246
  1491  06B3  00B4               	movwf	(??_main+2)^(0+128)
  1492  06B4  0834               	movf	(??_main+2)^(0+128),w
  1493  06B5  00F0               	movwf	___bmul@multiplicand
  1494  06B6  0828               	movf	_decena1^(0+128),w
  1495  06B7  120A  158A  2061  120A  118A  	fcall	___bmul
  1496  06BC  1683               	bsf	3,5	;RP0=1, select bank1
  1497  06BD  1303               	bcf	3,6	;RP1=0, select bank1
  1498  06BE  0733               	addwf	(??_main+1)^(0+128),w
  1499  06BF  0720               	addwf	_CONT^(0+128),w
  1500  06C0  3E30               	addlw	48
  1501  06C1  00B5               	movwf	(??_main+3)^(0+128)
  1502  06C2  0835               	movf	(??_main+3)^(0+128),w
  1503  06C3  00A7               	movwf	_unidad1^(0+128)
  1504  06C4                     l2544:
  1505                           
  1506                           ;Master.c: 85:         centena2 = (TEMP /100) + 48;
  1507  06C4  3064               	movlw	100
  1508  06C5  00F6               	movwf	___awdiv@divisor
  1509  06C6  3000               	movlw	0
  1510  06C7  00F7               	movwf	___awdiv@divisor+1
  1511  06C8  1283               	bcf	3,5	;RP0=0, select bank0
  1512  06C9  1303               	bcf	3,6	;RP1=0, select bank0
  1513  06CA  086F               	movf	_TEMP+1,w
  1514  06CB  00F9               	movwf	___awdiv@dividend+1
  1515  06CC  086E               	movf	_TEMP,w
  1516  06CD  00F8               	movwf	___awdiv@dividend
  1517  06CE  120A  158A  221C  120A  118A  	fcall	___awdiv
  1518  06D3  0876               	movf	?___awdiv,w
  1519  06D4  3E30               	addlw	48
  1520  06D5  1683               	bsf	3,5	;RP0=1, select bank1
  1521  06D6  1303               	bcf	3,6	;RP1=0, select bank1
  1522  06D7  00B2               	movwf	??_main^(0+128)
  1523  06D8  0832               	movf	??_main^(0+128),w
  1524  06D9  00A6               	movwf	_centena2^(0+128)
  1525  06DA                     l2546:
  1526                           
  1527                           ;Master.c: 86:         decena2 = ((TEMP - (centena2*100)) / 10) + 48;
  1528  06DA  300A               	movlw	10
  1529  06DB  00F6               	movwf	___awdiv@divisor
  1530  06DC  3000               	movlw	0
  1531  06DD  00F7               	movwf	___awdiv@divisor+1
  1532  06DE  0826               	movf	_centena2^(0+128),w
  1533  06DF  00B2               	movwf	??_main^(0+128)
  1534  06E0  01B3               	clrf	(??_main^(0+128)+1)
  1535  06E1  0832               	movf	??_main^(0+128),w
  1536  06E2  00F0               	movwf	___wmul@multiplier
  1537  06E3  0833               	movf	(??_main+1)^(0+128),w
  1538  06E4  00F1               	movwf	___wmul@multiplier+1
  1539  06E5  309C               	movlw	156
  1540  06E6  00F2               	movwf	___wmul@multiplicand
  1541  06E7  30FF               	movlw	255
  1542  06E8  00F3               	movwf	___wmul@multiplicand+1
  1543  06E9  120A  158A  20C8  120A  118A  	fcall	___wmul
  1544  06EE  1283               	bcf	3,5	;RP0=0, select bank0
  1545  06EF  1303               	bcf	3,6	;RP1=0, select bank0
  1546  06F0  086E               	movf	_TEMP,w
  1547  06F1  0770               	addwf	?___wmul,w
  1548  06F2  00F8               	movwf	___awdiv@dividend
  1549  06F3  086F               	movf	_TEMP+1,w
  1550  06F4  1803               	skipnc
  1551  06F5  0A6F               	incf	_TEMP+1,w
  1552  06F6  0771               	addwf	?___wmul+1,w
  1553  06F7  00F9               	movwf	___awdiv@dividend+1
  1554  06F8  120A  158A  221C  120A  118A  	fcall	___awdiv
  1555  06FD  0876               	movf	?___awdiv,w
  1556  06FE  3E30               	addlw	48
  1557  06FF  1683               	bsf	3,5	;RP0=1, select bank1
  1558  0700  1303               	bcf	3,6	;RP1=0, select bank1
  1559  0701  00B4               	movwf	(??_main+2)^(0+128)
  1560  0702  0834               	movf	(??_main+2)^(0+128),w
  1561  0703  00A5               	movwf	_decena2^(0+128)
  1562  0704                     l2548:
  1563                           
  1564                           ;Master.c: 87:         unidad2 = ((TEMP - (centena2*100)) - (decena2*10)) + 48;
  1565  0704  309C               	movlw	156
  1566  0705  00B2               	movwf	??_main^(0+128)
  1567  0706  0832               	movf	??_main^(0+128),w
  1568  0707  00F0               	movwf	___bmul@multiplicand
  1569  0708  0826               	movf	_centena2^(0+128),w
  1570  0709  120A  158A  2061  120A  118A  	fcall	___bmul
  1571  070E  1683               	bsf	3,5	;RP0=1, select bank1
  1572  070F  1303               	bcf	3,6	;RP1=0, select bank1
  1573  0710  00B3               	movwf	(??_main+1)^(0+128)
  1574  0711  30F6               	movlw	246
  1575  0712  00B4               	movwf	(??_main+2)^(0+128)
  1576  0713  0834               	movf	(??_main+2)^(0+128),w
  1577  0714  00F0               	movwf	___bmul@multiplicand
  1578  0715  0825               	movf	_decena2^(0+128),w
  1579  0716  120A  158A  2061  120A  118A  	fcall	___bmul
  1580  071B  1683               	bsf	3,5	;RP0=1, select bank1
  1581  071C  1303               	bcf	3,6	;RP1=0, select bank1
  1582  071D  0733               	addwf	(??_main+1)^(0+128),w
  1583  071E  1283               	bcf	3,5	;RP0=0, select bank0
  1584  071F  1303               	bcf	3,6	;RP1=0, select bank0
  1585  0720  076E               	addwf	_TEMP,w
  1586  0721  3E30               	addlw	48
  1587  0722  1683               	bsf	3,5	;RP0=1, select bank1
  1588  0723  1303               	bcf	3,6	;RP1=0, select bank1
  1589  0724  00B5               	movwf	(??_main+3)^(0+128)
  1590  0725  0835               	movf	(??_main+3)^(0+128),w
  1591  0726  00A4               	movwf	_unidad2^(0+128)
  1592  0727                     l2550:
  1593                           
  1594                           ;Master.c: 90:         LCD_XY(0,0);
  1595  0727  01F2               	clrf	LCD_XY@y
  1596  0728  3000               	movlw	0
  1597  0729  120A  158A  2076  120A  118A  	fcall	_LCD_XY
  1598  072E                     l2552:
  1599                           
  1600                           ;Master.c: 91:         LCD_Cadena("S1    S2     S3");
  1601  072E  3001               	movlw	(low ((STR_1-__stringbase)| (0+32768)))& (0+255)
  1602  072F  120A  158A  20A4  120A  118A  	fcall	_LCD_Cadena
  1603  0734                     l2554:
  1604                           
  1605                           ;Master.c: 93:         LCD_XY(2,0);
  1606  0734  01F2               	clrf	LCD_XY@y
  1607  0735  3002               	movlw	2
  1608  0736  120A  158A  2076  120A  118A  	fcall	_LCD_XY
  1609  073B                     l2556:
  1610                           
  1611                           ;Master.c: 94:         LCD_Data(centena);
  1612  073B  1683               	bsf	3,5	;RP0=1, select bank1
  1613  073C  1303               	bcf	3,6	;RP1=0, select bank1
  1614  073D  082C               	movf	_centena^(0+128),w
  1615  073E  120A  118A  2006  120A  118A  	fcall	_LCD_Data
  1616  0743                     l2558:
  1617                           
  1618                           ;Master.c: 95:         LCD_Data('.');
  1619  0743  302E               	movlw	46
  1620  0744  120A  118A  2006  120A  118A  	fcall	_LCD_Data
  1621  0749                     l2560:
  1622                           
  1623                           ;Master.c: 96:         LCD_Data(decena);
  1624  0749  1683               	bsf	3,5	;RP0=1, select bank1
  1625  074A  1303               	bcf	3,6	;RP1=0, select bank1
  1626  074B  082B               	movf	_decena^(0+128),w
  1627  074C  120A  118A  2006  120A  118A  	fcall	_LCD_Data
  1628  0751                     l2562:
  1629                           
  1630                           ;Master.c: 97:         LCD_Data(unidad);
  1631  0751  1683               	bsf	3,5	;RP0=1, select bank1
  1632  0752  1303               	bcf	3,6	;RP1=0, select bank1
  1633  0753  082A               	movf	_unidad^(0+128),w
  1634  0754  120A  118A  2006  120A  118A  	fcall	_LCD_Data
  1635  0759                     l2564:
  1636                           
  1637                           ;Master.c: 99:         LCD_XY(2,5);
  1638  0759  3005               	movlw	5
  1639  075A  1683               	bsf	3,5	;RP0=1, select bank1
  1640  075B  1303               	bcf	3,6	;RP1=0, select bank1
  1641  075C  00B2               	movwf	??_main^(0+128)
  1642  075D  0832               	movf	??_main^(0+128),w
  1643  075E  00F2               	movwf	LCD_XY@y
  1644  075F  3002               	movlw	2
  1645  0760  120A  158A  2076  120A  118A  	fcall	_LCD_XY
  1646  0765                     l2566:
  1647                           
  1648                           ;Master.c: 100:         LCD_Data(centena1);
  1649  0765  1683               	bsf	3,5	;RP0=1, select bank1
  1650  0766  1303               	bcf	3,6	;RP1=0, select bank1
  1651  0767  0829               	movf	_centena1^(0+128),w
  1652  0768  120A  118A  2006  120A  118A  	fcall	_LCD_Data
  1653  076D                     l2568:
  1654                           
  1655                           ;Master.c: 101:         LCD_Data('.');
  1656  076D  302E               	movlw	46
  1657  076E  120A  118A  2006  120A  118A  	fcall	_LCD_Data
  1658  0773                     l2570:
  1659                           
  1660                           ;Master.c: 102:         LCD_Data(decena1);
  1661  0773  1683               	bsf	3,5	;RP0=1, select bank1
  1662  0774  1303               	bcf	3,6	;RP1=0, select bank1
  1663  0775  0828               	movf	_decena1^(0+128),w
  1664  0776  120A  118A  2006  120A  118A  	fcall	_LCD_Data
  1665  077B                     l2572:
  1666                           
  1667                           ;Master.c: 103:         LCD_Data(unidad1);
  1668  077B  1683               	bsf	3,5	;RP0=1, select bank1
  1669  077C  1303               	bcf	3,6	;RP1=0, select bank1
  1670  077D  0827               	movf	_unidad1^(0+128),w
  1671  077E  120A  118A  2006  120A  118A  	fcall	_LCD_Data
  1672  0783                     l2574:
  1673                           
  1674                           ;Master.c: 105:         LCD_XY(2,11);
  1675  0783  300B               	movlw	11
  1676  0784  1683               	bsf	3,5	;RP0=1, select bank1
  1677  0785  1303               	bcf	3,6	;RP1=0, select bank1
  1678  0786  00B2               	movwf	??_main^(0+128)
  1679  0787  0832               	movf	??_main^(0+128),w
  1680  0788  00F2               	movwf	LCD_XY@y
  1681  0789  3002               	movlw	2
  1682  078A  120A  158A  2076  120A  118A  	fcall	_LCD_XY
  1683  078F                     l2576:
  1684                           
  1685                           ;Master.c: 106:         LCD_Data(centena2);
  1686  078F  1683               	bsf	3,5	;RP0=1, select bank1
  1687  0790  1303               	bcf	3,6	;RP1=0, select bank1
  1688  0791  0826               	movf	_centena2^(0+128),w
  1689  0792  120A  118A  2006  120A  118A  	fcall	_LCD_Data
  1690  0797                     l2578:
  1691                           
  1692                           ;Master.c: 107:         LCD_Data(decena2);
  1693  0797  1683               	bsf	3,5	;RP0=1, select bank1
  1694  0798  1303               	bcf	3,6	;RP1=0, select bank1
  1695  0799  0825               	movf	_decena2^(0+128),w
  1696  079A  120A  118A  2006  120A  118A  	fcall	_LCD_Data
  1697  079F                     l2580:
  1698                           
  1699                           ;Master.c: 108:         LCD_Data(unidad2);
  1700  079F  1683               	bsf	3,5	;RP0=1, select bank1
  1701  07A0  1303               	bcf	3,6	;RP1=0, select bank1
  1702  07A1  0824               	movf	_unidad2^(0+128),w
  1703  07A2  120A  118A  2006  120A  118A  	fcall	_LCD_Data
  1704  07A7                     l2582:
  1705                           
  1706                           ;Master.c: 110:         if(TEMP < 0){
  1707  07A7  1283               	bcf	3,5	;RP0=0, select bank0
  1708  07A8  1303               	bcf	3,6	;RP1=0, select bank0
  1709  07A9  1FEF               	btfss	_TEMP+1,7
  1710  07AA  2FAC               	goto	u3381
  1711  07AB  2FAD               	goto	u3380
  1712  07AC                     u3381:
  1713  07AC  2FD3               	goto	l2586
  1714  07AD                     u3380:
  1715  07AD                     l2584:
  1716                           
  1717                           ;Master.c: 111:             TEMP *= -1;
  1718  07AD  30FF               	movlw	255
  1719  07AE  00F0               	movwf	___wmul@multiplier
  1720  07AF  30FF               	movlw	255
  1721  07B0  00F1               	movwf	___wmul@multiplier+1
  1722  07B1  086F               	movf	_TEMP+1,w
  1723  07B2  00F3               	movwf	___wmul@multiplicand+1
  1724  07B3  086E               	movf	_TEMP,w
  1725  07B4  00F2               	movwf	___wmul@multiplicand
  1726  07B5  120A  158A  20C8  120A  118A  	fcall	___wmul
  1727  07BA  0871               	movf	?___wmul+1,w
  1728  07BB  1283               	bcf	3,5	;RP0=0, select bank0
  1729  07BC  1303               	bcf	3,6	;RP1=0, select bank0
  1730  07BD  00EF               	movwf	_TEMP+1
  1731  07BE  0870               	movf	?___wmul,w
  1732  07BF  00EE               	movwf	_TEMP
  1733                           
  1734                           ;Master.c: 112:             LCD_XY(2,10);
  1735  07C0  300A               	movlw	10
  1736  07C1  1683               	bsf	3,5	;RP0=1, select bank1
  1737  07C2  1303               	bcf	3,6	;RP1=0, select bank1
  1738  07C3  00B2               	movwf	??_main^(0+128)
  1739  07C4  0832               	movf	??_main^(0+128),w
  1740  07C5  00F2               	movwf	LCD_XY@y
  1741  07C6  3002               	movlw	2
  1742  07C7  120A  158A  2076  120A  118A  	fcall	_LCD_XY
  1743                           
  1744                           ;Master.c: 113:             LCD_Data('-');
  1745  07CC  302D               	movlw	45
  1746  07CD  120A  118A  2006  120A  118A  	fcall	_LCD_Data
  1747                           
  1748                           ;Master.c: 114:         }else{
  1749  07D2  2C43               	goto	l124
  1750  07D3                     l2586:
  1751                           
  1752                           ;Master.c: 115:             LCD_XY(2,10);
  1753  07D3  300A               	movlw	10
  1754  07D4  1683               	bsf	3,5	;RP0=1, select bank1
  1755  07D5  1303               	bcf	3,6	;RP1=0, select bank1
  1756  07D6  00B2               	movwf	??_main^(0+128)
  1757  07D7  0832               	movf	??_main^(0+128),w
  1758  07D8  00F2               	movwf	LCD_XY@y
  1759  07D9  3002               	movlw	2
  1760  07DA  120A  158A  2076  120A  118A  	fcall	_LCD_XY
  1761                           
  1762                           ;Master.c: 116:             LCD_Data(' ');
  1763  07DF  3020               	movlw	32
  1764  07E0  120A  118A  2006  120A  118A  	fcall	_LCD_Data
  1765  07E5  2C43               	goto	l124
  1766  07E6  120A  118A  2800   	ljmp	start
  1767  07E9                     __end_of_main:
  1768                           
  1769                           	psect	text1
  1770  097A                     __ptext1:	
  1771 ;; *************** function _setup *****************
  1772 ;; Defined at:
  1773 ;;		line 122 in file "Master.c"
  1774 ;; Parameters:    Size  Location     Type
  1775 ;;		None
  1776 ;; Auto vars:     Size  Location     Type
  1777 ;;		None
  1778 ;; Return value:  Size  Location     Type
  1779 ;;                  1    wreg      void 
  1780 ;; Registers used:
  1781 ;;		wreg, status,2, status,0, pclath, cstack
  1782 ;; Tracked objects:
  1783 ;;		On entry : 0/0
  1784 ;;		On exit  : 0/0
  1785 ;;		Unchanged: 0/0
  1786 ;; Data sizes:     COMMON   BANK0   BANK1   BANK3   BANK2
  1787 ;;      Params:         0       0       0       0       0
  1788 ;;      Locals:         0       0       0       0       0
  1789 ;;      Temps:          0       0       0       0       0
  1790 ;;      Totals:         0       0       0       0       0
  1791 ;;Total ram usage:        0 bytes
  1792 ;; Hardware stack levels used:    1
  1793 ;; Hardware stack levels required when called:    2
  1794 ;; This function calls:
  1795 ;;		_I2C_Master_Init
  1796 ;;		_LCD_Init
  1797 ;; This function is called by:
  1798 ;;		_main
  1799 ;; This function uses a non-reentrant model
  1800 ;;
  1801                           
  1802                           
  1803                           ;psect for function _setup
  1804  097A                     _setup:
  1805  097A                     l1838:	
  1806                           ;incstack = 0
  1807                           ; Regs used in _setup: [wreg+status,2+status,0+pclath+cstack]
  1808                           
  1809                           
  1810                           ;Master.c: 123:     ANSEL = 0;
  1811  097A  1683               	bsf	3,5	;RP0=1, select bank3
  1812  097B  1703               	bsf	3,6	;RP1=1, select bank3
  1813  097C  0188               	clrf	8	;volatile
  1814                           
  1815                           ;Master.c: 124:     ANSELH = 0;
  1816  097D  0189               	clrf	9	;volatile
  1817                           
  1818                           ;Master.c: 126:     TRISA = 0;
  1819  097E  1683               	bsf	3,5	;RP0=1, select bank1
  1820  097F  1303               	bcf	3,6	;RP1=0, select bank1
  1821  0980  0185               	clrf	5	;volatile
  1822                           
  1823                           ;Master.c: 127:     TRISB = 0;
  1824  0981  0186               	clrf	6	;volatile
  1825                           
  1826                           ;Master.c: 128:     TRISD = 0;
  1827  0982  0188               	clrf	8	;volatile
  1828                           
  1829                           ;Master.c: 130:     PORTA = 0;
  1830  0983  1283               	bcf	3,5	;RP0=0, select bank0
  1831  0984  1303               	bcf	3,6	;RP1=0, select bank0
  1832  0985  0185               	clrf	5	;volatile
  1833                           
  1834                           ;Master.c: 131:     PORTB = 0;
  1835  0986  0186               	clrf	6	;volatile
  1836                           
  1837                           ;Master.c: 132:     PORTD = 0;
  1838  0987  0188               	clrf	8	;volatile
  1839  0988                     l1840:
  1840                           
  1841                           ;Master.c: 135:     OSCCONbits.IRCF2 =1;
  1842  0988  1683               	bsf	3,5	;RP0=1, select bank1
  1843  0989  1303               	bcf	3,6	;RP1=0, select bank1
  1844  098A  170F               	bsf	15,6	;volatile
  1845  098B                     l1842:
  1846                           
  1847                           ;Master.c: 136:     OSCCONbits.IRCF1 =1;
  1848  098B  168F               	bsf	15,5	;volatile
  1849  098C                     l1844:
  1850                           
  1851                           ;Master.c: 137:     OSCCONbits.IRCF0 =1;
  1852  098C  160F               	bsf	15,4	;volatile
  1853  098D                     l1846:
  1854                           
  1855                           ;Master.c: 138:     OSCCONbits.SCS =1;
  1856  098D  140F               	bsf	15,0	;volatile
  1857                           
  1858                           ;Master.c: 140:     TEMP = 0;
  1859  098E  1283               	bcf	3,5	;RP0=0, select bank0
  1860  098F  1303               	bcf	3,6	;RP1=0, select bank0
  1861  0990  01EE               	clrf	_TEMP
  1862  0991  01EF               	clrf	_TEMP+1
  1863                           
  1864                           ;Master.c: 141:     CONT = 0;
  1865  0992  1683               	bsf	3,5	;RP0=1, select bank1
  1866  0993  1303               	bcf	3,6	;RP1=0, select bank1
  1867  0994  01A0               	clrf	_CONT^(0+128)
  1868  0995  01A1               	clrf	(_CONT+1)^(0+128)
  1869                           
  1870                           ;Master.c: 142:     ADC = 0;
  1871  0996  01A2               	clrf	_ADC^(0+128)
  1872  0997  01A3               	clrf	(_ADC+1)^(0+128)
  1873                           
  1874                           ;Master.c: 143:     centena = 0;
  1875  0998  01AC               	clrf	_centena^(0+128)
  1876                           
  1877                           ;Master.c: 144:     decena = 0;
  1878  0999  01AB               	clrf	_decena^(0+128)
  1879                           
  1880                           ;Master.c: 145:     unidad = 0;
  1881  099A  01AA               	clrf	_unidad^(0+128)
  1882                           
  1883                           ;Master.c: 147:     centena1 = 0;
  1884  099B  01A9               	clrf	_centena1^(0+128)
  1885                           
  1886                           ;Master.c: 148:     decena1 = 0;
  1887  099C  01A8               	clrf	_decena1^(0+128)
  1888                           
  1889                           ;Master.c: 149:     unidad1 = 0;
  1890  099D  01A7               	clrf	_unidad1^(0+128)
  1891                           
  1892                           ;Master.c: 151:     centena2 = 0;
  1893  099E  01A6               	clrf	_centena2^(0+128)
  1894                           
  1895                           ;Master.c: 152:     decena2 = 0;
  1896  099F  01A5               	clrf	_decena2^(0+128)
  1897                           
  1898                           ;Master.c: 153:     unidad2 = 0;
  1899  09A0  01A4               	clrf	_unidad2^(0+128)
  1900  09A1                     l1848:
  1901                           
  1902                           ;Master.c: 155:     LCD_Init();
  1903  09A1  120A  158A  2285  120A  158A  	fcall	_LCD_Init
  1904  09A6                     l1850:
  1905                           
  1906                           ;Master.c: 156:     I2C_Master_Init(100000);
  1907  09A6  3000               	movlw	0
  1908  09A7  1283               	bcf	3,5	;RP0=0, select bank0
  1909  09A8  1303               	bcf	3,6	;RP1=0, select bank0
  1910  09A9  00A3               	movwf	I2C_Master_Init@c+3
  1911  09AA  3001               	movlw	1
  1912  09AB  00A2               	movwf	I2C_Master_Init@c+2
  1913  09AC  3086               	movlw	134
  1914  09AD  00A1               	movwf	I2C_Master_Init@c+1
  1915  09AE  30A0               	movlw	160
  1916  09AF  00A0               	movwf	I2C_Master_Init@c
  1917  09B0  120A  158A  2142  120A  158A  	fcall	_I2C_Master_Init
  1918  09B5                     l132:
  1919  09B5  0008               	return
  1920  09B6                     __end_of_setup:
  1921                           
  1922                           	psect	text2
  1923  0A85                     __ptext2:	
  1924 ;; *************** function _LCD_Init *****************
  1925 ;; Defined at:
  1926 ;;		line 14 in file "LCD.c"
  1927 ;; Parameters:    Size  Location     Type
  1928 ;;		None
  1929 ;; Auto vars:     Size  Location     Type
  1930 ;;		None
  1931 ;; Return value:  Size  Location     Type
  1932 ;;                  1    wreg      void 
  1933 ;; Registers used:
  1934 ;;		wreg, status,2, status,0, pclath, cstack
  1935 ;; Tracked objects:
  1936 ;;		On entry : 0/0
  1937 ;;		On exit  : 0/0
  1938 ;;		Unchanged: 0/0
  1939 ;; Data sizes:     COMMON   BANK0   BANK1   BANK3   BANK2
  1940 ;;      Params:         0       0       0       0       0
  1941 ;;      Locals:         0       0       0       0       0
  1942 ;;      Temps:          2       0       0       0       0
  1943 ;;      Totals:         2       0       0       0       0
  1944 ;;Total ram usage:        2 bytes
  1945 ;; Hardware stack levels used:    1
  1946 ;; Hardware stack levels required when called:    1
  1947 ;; This function calls:
  1948 ;;		_LCD_comando
  1949 ;; This function is called by:
  1950 ;;		_setup
  1951 ;; This function uses a non-reentrant model
  1952 ;;
  1953                           
  1954                           
  1955                           ;psect for function _LCD_Init
  1956  0A85                     _LCD_Init:
  1957  0A85                     l1744:	
  1958                           ;incstack = 0
  1959                           ; Regs used in _LCD_Init: [wreg+status,2+status,0+pclath+cstack]
  1960                           
  1961                           
  1962                           ;LCD.c: 15:     PORTD = PORTD & 0x00;
  1963  0A85  1283               	bcf	3,5	;RP0=0, select bank0
  1964  0A86  1303               	bcf	3,6	;RP1=0, select bank0
  1965  0A87  0188               	clrf	8	;volatile
  1966                           
  1967                           ;LCD.c: 16:     TRISD = 0x00;
  1968  0A88  1683               	bsf	3,5	;RP0=1, select bank1
  1969  0A89  1303               	bcf	3,6	;RP1=0, select bank1
  1970  0A8A  0188               	clrf	8	;volatile
  1971  0A8B                     l1746:
  1972                           
  1973                           ;LCD.c: 17:     TRISCbits.TRISC5 = 0;
  1974  0A8B  1287               	bcf	7,5	;volatile
  1975  0A8C                     l1748:
  1976                           
  1977                           ;LCD.c: 18:     TRISCbits.TRISC6 = 0;
  1978  0A8C  1307               	bcf	7,6	;volatile
  1979  0A8D                     l1750:
  1980                           
  1981                           ;LCD.c: 19:     TRISCbits.TRISC7 = 0;
  1982  0A8D  1387               	bcf	7,7	;volatile
  1983  0A8E                     l1752:
  1984                           
  1985                           ;LCD.c: 20:     PORTCbits.RC5 = 0;
  1986  0A8E  1283               	bcf	3,5	;RP0=0, select bank0
  1987  0A8F  1303               	bcf	3,6	;RP1=0, select bank0
  1988  0A90  1287               	bcf	7,5	;volatile
  1989  0A91                     l1754:
  1990                           
  1991                           ;LCD.c: 21:     PORTCbits.RC6 = 0;
  1992  0A91  1307               	bcf	7,6	;volatile
  1993  0A92                     l1756:
  1994                           
  1995                           ;LCD.c: 22:     PORTCbits.RC7 = 0;
  1996  0A92  1387               	bcf	7,7	;volatile
  1997  0A93                     l1758:
  1998                           
  1999                           ;LCD.c: 24:     _delay((unsigned long)((16)*(8000000/4000.0)));
  2000  0A93  302A               	movlw	42
  2001  0A94  00F3               	movwf	??_LCD_Init+1
  2002  0A95  308D               	movlw	141
  2003  0A96  00F2               	movwf	??_LCD_Init
  2004  0A97                     u3437:
  2005  0A97  0BF2               	decfsz	??_LCD_Init,f
  2006  0A98  2A97               	goto	u3437
  2007  0A99  0BF3               	decfsz	??_LCD_Init+1,f
  2008  0A9A  2A97               	goto	u3437
  2009  0A9B  2A9C               	nop2
  2010  0A9C                     l1760:
  2011                           
  2012                           ;LCD.c: 25:     LCD_comando(0b00110000);
  2013  0A9C  3030               	movlw	48
  2014  0A9D  120A  158A  208C  120A  158A  	fcall	_LCD_comando
  2015  0AA2                     l1762:
  2016                           
  2017                           ;LCD.c: 26:     _delay((unsigned long)((5)*(8000000/4000.0)));
  2018  0AA2  300D               	movlw	13
  2019  0AA3  00F3               	movwf	??_LCD_Init+1
  2020  0AA4  30FB               	movlw	251
  2021  0AA5  00F2               	movwf	??_LCD_Init
  2022  0AA6                     u3447:
  2023  0AA6  0BF2               	decfsz	??_LCD_Init,f
  2024  0AA7  2AA6               	goto	u3447
  2025  0AA8  0BF3               	decfsz	??_LCD_Init+1,f
  2026  0AA9  2AA6               	goto	u3447
  2027  0AAA  2AAB               	nop2
  2028  0AAB                     l1764:
  2029                           
  2030                           ;LCD.c: 27:     LCD_comando(0b00110000);
  2031  0AAB  3030               	movlw	48
  2032  0AAC  120A  158A  208C  120A  158A  	fcall	_LCD_comando
  2033  0AB1                     l1766:
  2034                           
  2035                           ;LCD.c: 28:     _delay((unsigned long)((100)*(8000000/4000000.0)));
  2036  0AB1  3042               	movlw	66
  2037  0AB2  00F2               	movwf	??_LCD_Init
  2038  0AB3                     u3457:
  2039  0AB3  0BF2               	decfsz	??_LCD_Init,f
  2040  0AB4  2AB3               	goto	u3457
  2041  0AB5  0000               	nop
  2042  0AB6                     l1768:
  2043                           
  2044                           ;LCD.c: 29:     LCD_comando(0b00110000);
  2045  0AB6  3030               	movlw	48
  2046  0AB7  120A  158A  208C  120A  158A  	fcall	_LCD_comando
  2047  0ABC                     l1770:
  2048                           
  2049                           ;LCD.c: 30:     _delay((unsigned long)((100)*(8000000/4000000.0)));
  2050  0ABC  3042               	movlw	66
  2051  0ABD  00F2               	movwf	??_LCD_Init
  2052  0ABE                     u3467:
  2053  0ABE  0BF2               	decfsz	??_LCD_Init,f
  2054  0ABF  2ABE               	goto	u3467
  2055  0AC0  0000               	nop
  2056  0AC1                     l1772:
  2057                           
  2058                           ;LCD.c: 33:     LCD_comando(0b00111000);
  2059  0AC1  3038               	movlw	56
  2060  0AC2  120A  158A  208C  120A  158A  	fcall	_LCD_comando
  2061  0AC7                     l1774:
  2062                           
  2063                           ;LCD.c: 34:     _delay((unsigned long)((100)*(8000000/4000000.0)));
  2064  0AC7  3042               	movlw	66
  2065  0AC8  00F2               	movwf	??_LCD_Init
  2066  0AC9                     u3477:
  2067  0AC9  0BF2               	decfsz	??_LCD_Init,f
  2068  0ACA  2AC9               	goto	u3477
  2069  0ACB  0000               	nop
  2070  0ACC                     l1776:
  2071                           
  2072                           ;LCD.c: 35:     LCD_comando(0b00001000);
  2073  0ACC  3008               	movlw	8
  2074  0ACD  120A  158A  208C  120A  158A  	fcall	_LCD_comando
  2075  0AD2                     l1778:
  2076                           
  2077                           ;LCD.c: 36:     _delay((unsigned long)((100)*(8000000/4000000.0)));
  2078  0AD2  3042               	movlw	66
  2079  0AD3  00F2               	movwf	??_LCD_Init
  2080  0AD4                     u3487:
  2081  0AD4  0BF2               	decfsz	??_LCD_Init,f
  2082  0AD5  2AD4               	goto	u3487
  2083  0AD6  0000               	nop
  2084  0AD7                     l1780:
  2085                           
  2086                           ;LCD.c: 37:     LCD_comando(0b00000001);
  2087  0AD7  3001               	movlw	1
  2088  0AD8  120A  158A  208C  120A  158A  	fcall	_LCD_comando
  2089  0ADD                     l1782:
  2090                           
  2091                           ;LCD.c: 38:     _delay((unsigned long)((100)*(8000000/4000000.0)));
  2092  0ADD  3042               	movlw	66
  2093  0ADE  00F2               	movwf	??_LCD_Init
  2094  0ADF                     u3497:
  2095  0ADF  0BF2               	decfsz	??_LCD_Init,f
  2096  0AE0  2ADF               	goto	u3497
  2097  0AE1  0000               	nop
  2098  0AE2                     l1784:
  2099                           
  2100                           ;LCD.c: 39:     LCD_comando(0b00000100);
  2101  0AE2  3004               	movlw	4
  2102  0AE3  120A  158A  208C  120A  158A  	fcall	_LCD_comando
  2103  0AE8                     l1786:
  2104                           
  2105                           ;LCD.c: 40:     _delay((unsigned long)((100)*(8000000/4000000.0)));
  2106  0AE8  3042               	movlw	66
  2107  0AE9  00F2               	movwf	??_LCD_Init
  2108  0AEA                     u3507:
  2109  0AEA  0BF2               	decfsz	??_LCD_Init,f
  2110  0AEB  2AEA               	goto	u3507
  2111  0AEC  0000               	nop
  2112  0AED                     l1788:
  2113                           
  2114                           ;LCD.c: 41:     _delay((unsigned long)((100)*(8000000/4000000.0)));
  2115  0AED  3042               	movlw	66
  2116  0AEE  00F2               	movwf	??_LCD_Init
  2117  0AEF                     u3517:
  2118  0AEF  0BF2               	decfsz	??_LCD_Init,f
  2119  0AF0  2AEF               	goto	u3517
  2120  0AF1  0000               	nop
  2121  0AF2                     l1790:
  2122                           
  2123                           ;LCD.c: 42:     LCD_comando(0x06);
  2124  0AF2  3006               	movlw	6
  2125  0AF3  120A  158A  208C  120A  158A  	fcall	_LCD_comando
  2126  0AF8                     l1792:
  2127                           
  2128                           ;LCD.c: 43:     LCD_comando(0x0C);
  2129  0AF8  300C               	movlw	12
  2130  0AF9  120A  158A  208C  120A  158A  	fcall	_LCD_comando
  2131  0AFE                     l149:
  2132  0AFE  0008               	return
  2133  0AFF                     __end_of_LCD_Init:
  2134                           
  2135                           	psect	text3
  2136  0942                     __ptext3:	
  2137 ;; *************** function _I2C_Master_Init *****************
  2138 ;; Defined at:
  2139 ;;		line 14 in file "I2C.c"
  2140 ;; Parameters:    Size  Location     Type
  2141 ;;  c               4    0[BANK0 ] const unsigned long 
  2142 ;; Auto vars:     Size  Location     Type
  2143 ;;		None
  2144 ;; Return value:  Size  Location     Type
  2145 ;;                  1    wreg      void 
  2146 ;; Registers used:
  2147 ;;		wreg, status,2, status,0, pclath, cstack
  2148 ;; Tracked objects:
  2149 ;;		On entry : 0/0
  2150 ;;		On exit  : 0/0
  2151 ;;		Unchanged: 0/0
  2152 ;; Data sizes:     COMMON   BANK0   BANK1   BANK3   BANK2
  2153 ;;      Params:         0       4       0       0       0
  2154 ;;      Locals:         0       0       0       0       0
  2155 ;;      Temps:          0       4       0       0       0
  2156 ;;      Totals:         0       8       0       0       0
  2157 ;;Total ram usage:        8 bytes
  2158 ;; Hardware stack levels used:    1
  2159 ;; Hardware stack levels required when called:    1
  2160 ;; This function calls:
  2161 ;;		___lldiv
  2162 ;; This function is called by:
  2163 ;;		_setup
  2164 ;; This function uses a non-reentrant model
  2165 ;;
  2166                           
  2167                           
  2168                           ;psect for function _I2C_Master_Init
  2169  0942                     _I2C_Master_Init:
  2170  0942                     l1716:	
  2171                           ;incstack = 0
  2172                           ; Regs used in _I2C_Master_Init: [wreg+status,2+status,0+pclath+cstack]
  2173                           
  2174                           
  2175                           ;I2C.c: 14: void I2C_Master_Init(const unsigned long c);I2C.c: 15: {;I2C.c: 16:     SSPC
      +                          ON = 0b00101000;
  2176  0942  3028               	movlw	40
  2177  0943  1283               	bcf	3,5	;RP0=0, select bank0
  2178  0944  1303               	bcf	3,6	;RP1=0, select bank0
  2179  0945  0094               	movwf	20	;volatile
  2180  0946                     l1718:
  2181                           
  2182                           ;I2C.c: 17:     SSPCON2 = 0;
  2183  0946  1683               	bsf	3,5	;RP0=1, select bank1
  2184  0947  1303               	bcf	3,6	;RP1=0, select bank1
  2185  0948  0191               	clrf	17	;volatile
  2186  0949                     l1720:
  2187                           
  2188                           ;I2C.c: 18:     SSPADD = (8000000/(4*c))-1;
  2189  0949  1283               	bcf	3,5	;RP0=0, select bank0
  2190  094A  1303               	bcf	3,6	;RP1=0, select bank0
  2191  094B  0820               	movf	I2C_Master_Init@c,w
  2192  094C  00A4               	movwf	??_I2C_Master_Init
  2193  094D  0821               	movf	I2C_Master_Init@c+1,w
  2194  094E  00A5               	movwf	??_I2C_Master_Init+1
  2195  094F  0822               	movf	I2C_Master_Init@c+2,w
  2196  0950  00A6               	movwf	??_I2C_Master_Init+2
  2197  0951  0823               	movf	I2C_Master_Init@c+3,w
  2198  0952  00A7               	movwf	??_I2C_Master_Init+3
  2199  0953  3002               	movlw	2
  2200  0954                     u1775:
  2201  0954  1003               	clrc
  2202  0955  0DA4               	rlf	??_I2C_Master_Init,f
  2203  0956  0DA5               	rlf	??_I2C_Master_Init+1,f
  2204  0957  0DA6               	rlf	??_I2C_Master_Init+2,f
  2205  0958  0DA7               	rlf	??_I2C_Master_Init+3,f
  2206  0959                     u1770:
  2207  0959  3EFF               	addlw	-1
  2208  095A  1D03               	skipz
  2209  095B  2954               	goto	u1775
  2210  095C  0827               	movf	??_I2C_Master_Init+3,w
  2211  095D  00F3               	movwf	___lldiv@divisor+3
  2212  095E  0826               	movf	??_I2C_Master_Init+2,w
  2213  095F  00F2               	movwf	___lldiv@divisor+2
  2214  0960  0825               	movf	??_I2C_Master_Init+1,w
  2215  0961  00F1               	movwf	___lldiv@divisor+1
  2216  0962  0824               	movf	??_I2C_Master_Init,w
  2217  0963  00F0               	movwf	___lldiv@divisor
  2218  0964  3000               	movlw	0
  2219  0965  00F7               	movwf	___lldiv@dividend+3
  2220  0966  307A               	movlw	122
  2221  0967  00F6               	movwf	___lldiv@dividend+2
  2222  0968  3012               	movlw	18
  2223  0969  00F5               	movwf	___lldiv@dividend+1
  2224  096A  3000               	movlw	0
  2225  096B  00F4               	movwf	___lldiv@dividend
  2226  096C  120A  158A  21B6  120A  158A  	fcall	___lldiv
  2227  0971  0870               	movf	?___lldiv,w
  2228  0972  3EFF               	addlw	255
  2229  0973  1683               	bsf	3,5	;RP0=1, select bank1
  2230  0974  1303               	bcf	3,6	;RP1=0, select bank1
  2231  0975  0093               	movwf	19	;volatile
  2232  0976                     l1722:
  2233                           
  2234                           ;I2C.c: 19:     SSPSTAT = 0;
  2235  0976  0194               	clrf	20	;volatile
  2236  0977                     l1724:
  2237                           
  2238                           ;I2C.c: 20:     TRISCbits.TRISC3 = 1;
  2239  0977  1587               	bsf	7,3	;volatile
  2240  0978                     l1726:
  2241                           
  2242                           ;I2C.c: 21:     TRISCbits.TRISC4 = 1;
  2243  0978  1607               	bsf	7,4	;volatile
  2244  0979                     l29:
  2245  0979  0008               	return
  2246  097A                     __end_of_I2C_Master_Init:
  2247                           
  2248                           	psect	text4
  2249  09B6                     __ptext4:	
  2250 ;; *************** function ___lldiv *****************
  2251 ;; Defined at:
  2252 ;;		line 5 in file "C:\Program Files\Microchip\xc8\v2.31\pic\sources\c90\common\__lldiv.c"
  2253 ;; Parameters:    Size  Location     Type
  2254 ;;  divisor         4    0[COMMON] unsigned long 
  2255 ;;  dividend        4    4[COMMON] unsigned long 
  2256 ;; Auto vars:     Size  Location     Type
  2257 ;;  quotient        4    9[COMMON] unsigned long 
  2258 ;;  counter         1   13[COMMON] unsigned char 
  2259 ;; Return value:  Size  Location     Type
  2260 ;;                  4    0[COMMON] unsigned long 
  2261 ;; Registers used:
  2262 ;;		wreg, status,2, status,0
  2263 ;; Tracked objects:
  2264 ;;		On entry : 0/0
  2265 ;;		On exit  : 0/0
  2266 ;;		Unchanged: 0/0
  2267 ;; Data sizes:     COMMON   BANK0   BANK1   BANK3   BANK2
  2268 ;;      Params:         8       0       0       0       0
  2269 ;;      Locals:         5       0       0       0       0
  2270 ;;      Temps:          1       0       0       0       0
  2271 ;;      Totals:        14       0       0       0       0
  2272 ;;Total ram usage:       14 bytes
  2273 ;; Hardware stack levels used:    1
  2274 ;; This function calls:
  2275 ;;		Nothing
  2276 ;; This function is called by:
  2277 ;;		_I2C_Master_Init
  2278 ;; This function uses a non-reentrant model
  2279 ;;
  2280                           
  2281                           
  2282                           ;psect for function ___lldiv
  2283  09B6                     ___lldiv:
  2284  09B6                     l1692:	
  2285                           ;incstack = 0
  2286                           ; Regs used in ___lldiv: [wreg+status,2+status,0]
  2287                           
  2288  09B6  3000               	movlw	0
  2289  09B7  00FC               	movwf	___lldiv@quotient+3
  2290  09B8  3000               	movlw	0
  2291  09B9  00FB               	movwf	___lldiv@quotient+2
  2292  09BA  3000               	movlw	0
  2293  09BB  00FA               	movwf	___lldiv@quotient+1
  2294  09BC  3000               	movlw	0
  2295  09BD  00F9               	movwf	___lldiv@quotient
  2296  09BE  0873               	movf	___lldiv@divisor+3,w
  2297  09BF  0472               	iorwf	___lldiv@divisor+2,w
  2298  09C0  0471               	iorwf	___lldiv@divisor+1,w
  2299  09C1  0470               	iorwf	___lldiv@divisor,w
  2300  09C2  1903               	skipnz
  2301  09C3  29C5               	goto	u1701
  2302  09C4  29C6               	goto	u1700
  2303  09C5                     u1701:
  2304  09C5  2A13               	goto	l1712
  2305  09C6                     u1700:
  2306  09C6                     l1694:
  2307  09C6  01FD               	clrf	___lldiv@counter
  2308  09C7  0AFD               	incf	___lldiv@counter,f
  2309  09C8  29D6               	goto	l1698
  2310  09C9                     l1696:
  2311  09C9  3001               	movlw	1
  2312  09CA  00F8               	movwf	??___lldiv
  2313  09CB                     u1715:
  2314  09CB  1003               	clrc
  2315  09CC  0DF0               	rlf	___lldiv@divisor,f
  2316  09CD  0DF1               	rlf	___lldiv@divisor+1,f
  2317  09CE  0DF2               	rlf	___lldiv@divisor+2,f
  2318  09CF  0DF3               	rlf	___lldiv@divisor+3,f
  2319  09D0  0BF8               	decfsz	??___lldiv,f
  2320  09D1  29CB               	goto	u1715
  2321  09D2  3001               	movlw	1
  2322  09D3  00F8               	movwf	??___lldiv
  2323  09D4  0878               	movf	??___lldiv,w
  2324  09D5  07FD               	addwf	___lldiv@counter,f
  2325  09D6                     l1698:
  2326  09D6  1FF3               	btfss	___lldiv@divisor+3,7
  2327  09D7  29D9               	goto	u1721
  2328  09D8  29DA               	goto	u1720
  2329  09D9                     u1721:
  2330  09D9  29C9               	goto	l1696
  2331  09DA                     u1720:
  2332  09DA                     l1700:
  2333  09DA  3001               	movlw	1
  2334  09DB  00F8               	movwf	??___lldiv
  2335  09DC                     u1735:
  2336  09DC  1003               	clrc
  2337  09DD  0DF9               	rlf	___lldiv@quotient,f
  2338  09DE  0DFA               	rlf	___lldiv@quotient+1,f
  2339  09DF  0DFB               	rlf	___lldiv@quotient+2,f
  2340  09E0  0DFC               	rlf	___lldiv@quotient+3,f
  2341  09E1  0BF8               	decfsz	??___lldiv,f
  2342  09E2  29DC               	goto	u1735
  2343  09E3                     l1702:
  2344  09E3  0873               	movf	___lldiv@divisor+3,w
  2345  09E4  0277               	subwf	___lldiv@dividend+3,w
  2346  09E5  1D03               	skipz
  2347  09E6  29F1               	goto	u1745
  2348  09E7  0872               	movf	___lldiv@divisor+2,w
  2349  09E8  0276               	subwf	___lldiv@dividend+2,w
  2350  09E9  1D03               	skipz
  2351  09EA  29F1               	goto	u1745
  2352  09EB  0871               	movf	___lldiv@divisor+1,w
  2353  09EC  0275               	subwf	___lldiv@dividend+1,w
  2354  09ED  1D03               	skipz
  2355  09EE  29F1               	goto	u1745
  2356  09EF  0870               	movf	___lldiv@divisor,w
  2357  09F0  0274               	subwf	___lldiv@dividend,w
  2358  09F1                     u1745:
  2359  09F1  1C03               	skipc
  2360  09F2  29F4               	goto	u1741
  2361  09F3  29F5               	goto	u1740
  2362  09F4                     u1741:
  2363  09F4  2A04               	goto	l1708
  2364  09F5                     u1740:
  2365  09F5                     l1704:
  2366  09F5  0870               	movf	___lldiv@divisor,w
  2367  09F6  02F4               	subwf	___lldiv@dividend,f
  2368  09F7  0871               	movf	___lldiv@divisor+1,w
  2369  09F8  1C03               	skipc
  2370  09F9  0F71               	incfsz	___lldiv@divisor+1,w
  2371  09FA  02F5               	subwf	___lldiv@dividend+1,f
  2372  09FB  0872               	movf	___lldiv@divisor+2,w
  2373  09FC  1C03               	skipc
  2374  09FD  0F72               	incfsz	___lldiv@divisor+2,w
  2375  09FE  02F6               	subwf	___lldiv@dividend+2,f
  2376  09FF  0873               	movf	___lldiv@divisor+3,w
  2377  0A00  1C03               	skipc
  2378  0A01  0F73               	incfsz	___lldiv@divisor+3,w
  2379  0A02  02F7               	subwf	___lldiv@dividend+3,f
  2380  0A03                     l1706:
  2381  0A03  1479               	bsf	___lldiv@quotient,0
  2382  0A04                     l1708:
  2383  0A04  3001               	movlw	1
  2384  0A05                     u1755:
  2385  0A05  1003               	clrc
  2386  0A06  0CF3               	rrf	___lldiv@divisor+3,f
  2387  0A07  0CF2               	rrf	___lldiv@divisor+2,f
  2388  0A08  0CF1               	rrf	___lldiv@divisor+1,f
  2389  0A09  0CF0               	rrf	___lldiv@divisor,f
  2390  0A0A  3EFF               	addlw	-1
  2391  0A0B  1D03               	skipz
  2392  0A0C  2A05               	goto	u1755
  2393  0A0D                     l1710:
  2394  0A0D  3001               	movlw	1
  2395  0A0E  02FD               	subwf	___lldiv@counter,f
  2396  0A0F  1D03               	btfss	3,2
  2397  0A10  2A12               	goto	u1761
  2398  0A11  2A13               	goto	u1760
  2399  0A12                     u1761:
  2400  0A12  29DA               	goto	l1700
  2401  0A13                     u1760:
  2402  0A13                     l1712:
  2403  0A13  087C               	movf	___lldiv@quotient+3,w
  2404  0A14  00F3               	movwf	?___lldiv+3
  2405  0A15  087B               	movf	___lldiv@quotient+2,w
  2406  0A16  00F2               	movwf	?___lldiv+2
  2407  0A17  087A               	movf	___lldiv@quotient+1,w
  2408  0A18  00F1               	movwf	?___lldiv+1
  2409  0A19  0879               	movf	___lldiv@quotient,w
  2410  0A1A  00F0               	movwf	?___lldiv
  2411  0A1B                     l288:
  2412  0A1B  0008               	return
  2413  0A1C                     __end_of___lldiv:
  2414                           
  2415                           	psect	text5
  2416  0023                     __ptext5:	
  2417 ;; *************** function ___xxtofl *****************
  2418 ;; Defined at:
  2419 ;;		line 10 in file "C:\Program Files\Microchip\xc8\v2.31\pic\sources\c90\common\xxtofl.c"
  2420 ;; Parameters:    Size  Location     Type
  2421 ;;  sign            1    wreg     unsigned char 
  2422 ;;  val             4    0[COMMON] long 
  2423 ;; Auto vars:     Size  Location     Type
  2424 ;;  sign            1    8[COMMON] unsigned char 
  2425 ;;  arg             4   10[COMMON] unsigned long 
  2426 ;;  exp             1    9[COMMON] unsigned char 
  2427 ;; Return value:  Size  Location     Type
  2428 ;;                  4    0[COMMON] unsigned char 
  2429 ;; Registers used:
  2430 ;;		wreg, status,2, status,0
  2431 ;; Tracked objects:
  2432 ;;		On entry : 0/0
  2433 ;;		On exit  : 0/0
  2434 ;;		Unchanged: 0/0
  2435 ;; Data sizes:     COMMON   BANK0   BANK1   BANK3   BANK2
  2436 ;;      Params:         4       0       0       0       0
  2437 ;;      Locals:         6       0       0       0       0
  2438 ;;      Temps:          4       0       0       0       0
  2439 ;;      Totals:        14       0       0       0       0
  2440 ;;Total ram usage:       14 bytes
  2441 ;; Hardware stack levels used:    1
  2442 ;; This function calls:
  2443 ;;		Nothing
  2444 ;; This function is called by:
  2445 ;;		_main
  2446 ;; This function uses a non-reentrant model
  2447 ;;
  2448                           
  2449                           
  2450                           ;psect for function ___xxtofl
  2451  0023                     ___xxtofl:
  2452                           
  2453                           ;incstack = 0
  2454                           ; Regs used in ___xxtofl: [wreg+status,2+status,0]
  2455                           ;___xxtofl@sign stored from wreg
  2456  0023  00F8               	movwf	___xxtofl@sign
  2457  0024                     l2452:
  2458  0024  0878               	movf	___xxtofl@sign,w
  2459  0025  1903               	btfsc	3,2
  2460  0026  2828               	goto	u3241
  2461  0027  2829               	goto	u3240
  2462  0028                     u3241:
  2463  0028  283D               	goto	l2458
  2464  0029                     u3240:
  2465  0029                     l2454:
  2466  0029  1FF3               	btfss	___xxtofl@val+3,7
  2467  002A  282C               	goto	u3251
  2468  002B  282D               	goto	u3250
  2469  002C                     u3251:
  2470  002C  283D               	goto	l2458
  2471  002D                     u3250:
  2472  002D                     l2456:
  2473  002D  0970               	comf	___xxtofl@val,w
  2474  002E  00FA               	movwf	___xxtofl@arg
  2475  002F  0971               	comf	___xxtofl@val+1,w
  2476  0030  00FB               	movwf	___xxtofl@arg+1
  2477  0031  0972               	comf	___xxtofl@val+2,w
  2478  0032  00FC               	movwf	___xxtofl@arg+2
  2479  0033  0973               	comf	___xxtofl@val+3,w
  2480  0034  00FD               	movwf	___xxtofl@arg+3
  2481  0035  0AFA               	incf	___xxtofl@arg,f
  2482  0036  1903               	skipnz
  2483  0037  0AFB               	incf	___xxtofl@arg+1,f
  2484  0038  1903               	skipnz
  2485  0039  0AFC               	incf	___xxtofl@arg+2,f
  2486  003A  1903               	skipnz
  2487  003B  0AFD               	incf	___xxtofl@arg+3,f
  2488  003C  2845               	goto	l685
  2489  003D                     l2458:
  2490  003D  0873               	movf	___xxtofl@val+3,w
  2491  003E  00FD               	movwf	___xxtofl@arg+3
  2492  003F  0872               	movf	___xxtofl@val+2,w
  2493  0040  00FC               	movwf	___xxtofl@arg+2
  2494  0041  0871               	movf	___xxtofl@val+1,w
  2495  0042  00FB               	movwf	___xxtofl@arg+1
  2496  0043  0870               	movf	___xxtofl@val,w
  2497  0044  00FA               	movwf	___xxtofl@arg
  2498  0045                     l685:
  2499  0045  0873               	movf	___xxtofl@val+3,w
  2500  0046  0472               	iorwf	___xxtofl@val+2,w
  2501  0047  0471               	iorwf	___xxtofl@val+1,w
  2502  0048  0470               	iorwf	___xxtofl@val,w
  2503  0049  1D03               	skipz
  2504  004A  284C               	goto	u3261
  2505  004B  284D               	goto	u3260
  2506  004C                     u3261:
  2507  004C  2856               	goto	l2464
  2508  004D                     u3260:
  2509  004D                     l2460:
  2510  004D  3000               	movlw	0
  2511  004E  00F3               	movwf	?___xxtofl+3
  2512  004F  3000               	movlw	0
  2513  0050  00F2               	movwf	?___xxtofl+2
  2514  0051  3000               	movlw	0
  2515  0052  00F1               	movwf	?___xxtofl+1
  2516  0053  3000               	movlw	0
  2517  0054  00F0               	movwf	?___xxtofl
  2518  0055  28DC               	goto	l687
  2519  0056                     l2464:
  2520  0056  3096               	movlw	150
  2521  0057  00F4               	movwf	??___xxtofl
  2522  0058  0874               	movf	??___xxtofl,w
  2523  0059  00F9               	movwf	___xxtofl@exp
  2524  005A  2868               	goto	l2468
  2525  005B                     l2466:
  2526  005B  3001               	movlw	1
  2527  005C  00F4               	movwf	??___xxtofl
  2528  005D  0874               	movf	??___xxtofl,w
  2529  005E  07F9               	addwf	___xxtofl@exp,f
  2530  005F  3001               	movlw	1
  2531  0060                     u3275:
  2532  0060  1003               	clrc
  2533  0061  0CFD               	rrf	___xxtofl@arg+3,f
  2534  0062  0CFC               	rrf	___xxtofl@arg+2,f
  2535  0063  0CFB               	rrf	___xxtofl@arg+1,f
  2536  0064  0CFA               	rrf	___xxtofl@arg,f
  2537  0065  3EFF               	addlw	-1
  2538  0066  1D03               	skipz
  2539  0067  2860               	goto	u3275
  2540  0068                     l2468:
  2541  0068  30FE               	movlw	254
  2542  0069  057D               	andwf	___xxtofl@arg+3,w
  2543  006A  1D03               	btfss	3,2
  2544  006B  286D               	goto	u3281
  2545  006C  286E               	goto	u3280
  2546  006D                     u3281:
  2547  006D  285B               	goto	l2466
  2548  006E                     u3280:
  2549  006E  288A               	goto	l691
  2550  006F                     l2470:
  2551  006F  3001               	movlw	1
  2552  0070  00F4               	movwf	??___xxtofl
  2553  0071  0874               	movf	??___xxtofl,w
  2554  0072  07F9               	addwf	___xxtofl@exp,f
  2555  0073                     l2472:
  2556  0073  3001               	movlw	1
  2557  0074  07FA               	addwf	___xxtofl@arg,f
  2558  0075  3000               	movlw	0
  2559  0076  1803               	skipnc
  2560  0077  3001               	movlw	1
  2561  0078  07FB               	addwf	___xxtofl@arg+1,f
  2562  0079  3000               	movlw	0
  2563  007A  1803               	skipnc
  2564  007B  3001               	movlw	1
  2565  007C  07FC               	addwf	___xxtofl@arg+2,f
  2566  007D  3000               	movlw	0
  2567  007E  1803               	skipnc
  2568  007F  3001               	movlw	1
  2569  0080  07FD               	addwf	___xxtofl@arg+3,f
  2570  0081                     l2474:
  2571  0081  3001               	movlw	1
  2572  0082                     u3295:
  2573  0082  1003               	clrc
  2574  0083  0CFD               	rrf	___xxtofl@arg+3,f
  2575  0084  0CFC               	rrf	___xxtofl@arg+2,f
  2576  0085  0CFB               	rrf	___xxtofl@arg+1,f
  2577  0086  0CFA               	rrf	___xxtofl@arg,f
  2578  0087  3EFF               	addlw	-1
  2579  0088  1D03               	skipz
  2580  0089  2882               	goto	u3295
  2581  008A                     l691:
  2582  008A  30FF               	movlw	255
  2583  008B  057D               	andwf	___xxtofl@arg+3,w
  2584  008C  1D03               	btfss	3,2
  2585  008D  288F               	goto	u3301
  2586  008E  2890               	goto	u3300
  2587  008F                     u3301:
  2588  008F  286F               	goto	l2470
  2589  0090                     u3300:
  2590  0090  289C               	goto	l2478
  2591  0091                     l2476:
  2592  0091  3001               	movlw	1
  2593  0092  02F9               	subwf	___xxtofl@exp,f
  2594  0093  3001               	movlw	1
  2595  0094  00F4               	movwf	??___xxtofl
  2596  0095                     u3315:
  2597  0095  1003               	clrc
  2598  0096  0DFA               	rlf	___xxtofl@arg,f
  2599  0097  0DFB               	rlf	___xxtofl@arg+1,f
  2600  0098  0DFC               	rlf	___xxtofl@arg+2,f
  2601  0099  0DFD               	rlf	___xxtofl@arg+3,f
  2602  009A  0BF4               	decfsz	??___xxtofl,f
  2603  009B  2895               	goto	u3315
  2604  009C                     l2478:
  2605  009C  1BFC               	btfsc	___xxtofl@arg+2,7
  2606  009D  289F               	goto	u3321
  2607  009E  28A0               	goto	u3320
  2608  009F                     u3321:
  2609  009F  28A6               	goto	l698
  2610  00A0                     u3320:
  2611  00A0                     l2480:
  2612  00A0  3002               	movlw	2
  2613  00A1  0279               	subwf	___xxtofl@exp,w
  2614  00A2  1803               	skipnc
  2615  00A3  28A5               	goto	u3331
  2616  00A4  28A6               	goto	u3330
  2617  00A5                     u3331:
  2618  00A5  2891               	goto	l2476
  2619  00A6                     u3330:
  2620  00A6                     l698:
  2621  00A6  1879               	btfsc	___xxtofl@exp,0
  2622  00A7  28A9               	goto	u3341
  2623  00A8  28AA               	goto	u3340
  2624  00A9                     u3341:
  2625  00A9  28B2               	goto	l699
  2626  00AA                     u3340:
  2627  00AA                     l2482:
  2628  00AA  30FF               	movlw	255
  2629  00AB  05FA               	andwf	___xxtofl@arg,f
  2630  00AC  30FF               	movlw	255
  2631  00AD  05FB               	andwf	___xxtofl@arg+1,f
  2632  00AE  307F               	movlw	127
  2633  00AF  05FC               	andwf	___xxtofl@arg+2,f
  2634  00B0  30FF               	movlw	255
  2635  00B1  05FD               	andwf	___xxtofl@arg+3,f
  2636  00B2                     l699:
  2637  00B2  1003               	clrc
  2638  00B3  0CF9               	rrf	___xxtofl@exp,f
  2639  00B4                     l2484:
  2640  00B4  0879               	movf	___xxtofl@exp,w
  2641  00B5  00F4               	movwf	??___xxtofl
  2642  00B6  01F5               	clrf	??___xxtofl+1
  2643  00B7  01F6               	clrf	??___xxtofl+2
  2644  00B8  01F7               	clrf	??___xxtofl+3
  2645  00B9  3018               	movlw	24
  2646  00BA                     u3355:
  2647  00BA  1003               	clrc
  2648  00BB  0DF4               	rlf	??___xxtofl,f
  2649  00BC  0DF5               	rlf	??___xxtofl+1,f
  2650  00BD  0DF6               	rlf	??___xxtofl+2,f
  2651  00BE  0DF7               	rlf	??___xxtofl+3,f
  2652  00BF                     u3350:
  2653  00BF  3EFF               	addlw	-1
  2654  00C0  1D03               	skipz
  2655  00C1  28BA               	goto	u3355
  2656  00C2  0874               	movf	??___xxtofl,w
  2657  00C3  04FA               	iorwf	___xxtofl@arg,f
  2658  00C4  0875               	movf	??___xxtofl+1,w
  2659  00C5  04FB               	iorwf	___xxtofl@arg+1,f
  2660  00C6  0876               	movf	??___xxtofl+2,w
  2661  00C7  04FC               	iorwf	___xxtofl@arg+2,f
  2662  00C8  0877               	movf	??___xxtofl+3,w
  2663  00C9  04FD               	iorwf	___xxtofl@arg+3,f
  2664  00CA                     l2486:
  2665  00CA  0878               	movf	___xxtofl@sign,w
  2666  00CB  1903               	btfsc	3,2
  2667  00CC  28CE               	goto	u3361
  2668  00CD  28CF               	goto	u3360
  2669  00CE                     u3361:
  2670  00CE  28D4               	goto	l2492
  2671  00CF                     u3360:
  2672  00CF                     l2488:
  2673  00CF  1FF3               	btfss	___xxtofl@val+3,7
  2674  00D0  28D2               	goto	u3371
  2675  00D1  28D3               	goto	u3370
  2676  00D2                     u3371:
  2677  00D2  28D4               	goto	l2492
  2678  00D3                     u3370:
  2679  00D3                     l2490:
  2680  00D3  17FD               	bsf	___xxtofl@arg+3,7
  2681  00D4                     l2492:
  2682  00D4  087D               	movf	___xxtofl@arg+3,w
  2683  00D5  00F3               	movwf	?___xxtofl+3
  2684  00D6  087C               	movf	___xxtofl@arg+2,w
  2685  00D7  00F2               	movwf	?___xxtofl+2
  2686  00D8  087B               	movf	___xxtofl@arg+1,w
  2687  00D9  00F1               	movwf	?___xxtofl+1
  2688  00DA  087A               	movf	___xxtofl@arg,w
  2689  00DB  00F0               	movwf	?___xxtofl
  2690  00DC                     l687:
  2691  00DC  0008               	return
  2692  00DD                     __end_of___xxtofl:
  2693                           
  2694                           	psect	text6
  2695  08C8                     __ptext6:	
  2696 ;; *************** function ___wmul *****************
  2697 ;; Defined at:
  2698 ;;		line 15 in file "C:\Program Files\Microchip\xc8\v2.31\pic\sources\c90\common\Umul16.c"
  2699 ;; Parameters:    Size  Location     Type
  2700 ;;  multiplier      2    0[COMMON] unsigned int 
  2701 ;;  multiplicand    2    2[COMMON] unsigned int 
  2702 ;; Auto vars:     Size  Location     Type
  2703 ;;  product         2    4[COMMON] unsigned int 
  2704 ;; Return value:  Size  Location     Type
  2705 ;;                  2    0[COMMON] unsigned int 
  2706 ;; Registers used:
  2707 ;;		wreg, status,2, status,0
  2708 ;; Tracked objects:
  2709 ;;		On entry : 0/0
  2710 ;;		On exit  : 0/0
  2711 ;;		Unchanged: 0/0
  2712 ;; Data sizes:     COMMON   BANK0   BANK1   BANK3   BANK2
  2713 ;;      Params:         4       0       0       0       0
  2714 ;;      Locals:         2       0       0       0       0
  2715 ;;      Temps:          0       0       0       0       0
  2716 ;;      Totals:         6       0       0       0       0
  2717 ;;Total ram usage:        6 bytes
  2718 ;; Hardware stack levels used:    1
  2719 ;; This function calls:
  2720 ;;		Nothing
  2721 ;; This function is called by:
  2722 ;;		_main
  2723 ;; This function uses a non-reentrant model
  2724 ;;
  2725                           
  2726                           
  2727                           ;psect for function ___wmul
  2728  08C8                     ___wmul:
  2729  08C8                     l1868:	
  2730                           ;incstack = 0
  2731                           ; Regs used in ___wmul: [wreg+status,2+status,0]
  2732                           
  2733  08C8  01F4               	clrf	___wmul@product
  2734  08C9  01F5               	clrf	___wmul@product+1
  2735  08CA                     l1870:
  2736  08CA  1C70               	btfss	___wmul@multiplier,0
  2737  08CB  28CD               	goto	u1861
  2738  08CC  28CE               	goto	u1860
  2739  08CD                     u1861:
  2740  08CD  28D4               	goto	l252
  2741  08CE                     u1860:
  2742  08CE                     l1872:
  2743  08CE  0872               	movf	___wmul@multiplicand,w
  2744  08CF  07F4               	addwf	___wmul@product,f
  2745  08D0  1803               	skipnc
  2746  08D1  0AF5               	incf	___wmul@product+1,f
  2747  08D2  0873               	movf	___wmul@multiplicand+1,w
  2748  08D3  07F5               	addwf	___wmul@product+1,f
  2749  08D4                     l252:
  2750  08D4  3001               	movlw	1
  2751  08D5                     u1875:
  2752  08D5  1003               	clrc
  2753  08D6  0DF2               	rlf	___wmul@multiplicand,f
  2754  08D7  0DF3               	rlf	___wmul@multiplicand+1,f
  2755  08D8  3EFF               	addlw	-1
  2756  08D9  1D03               	skipz
  2757  08DA  28D5               	goto	u1875
  2758  08DB                     l1874:
  2759  08DB  3001               	movlw	1
  2760  08DC                     u1885:
  2761  08DC  1003               	clrc
  2762  08DD  0CF1               	rrf	___wmul@multiplier+1,f
  2763  08DE  0CF0               	rrf	___wmul@multiplier,f
  2764  08DF  3EFF               	addlw	-1
  2765  08E0  1D03               	skipz
  2766  08E1  28DC               	goto	u1885
  2767  08E2                     l1876:
  2768  08E2  0870               	movf	___wmul@multiplier,w
  2769  08E3  0471               	iorwf	___wmul@multiplier+1,w
  2770  08E4  1D03               	btfss	3,2
  2771  08E5  28E7               	goto	u1891
  2772  08E6  28E8               	goto	u1890
  2773  08E7                     u1891:
  2774  08E7  28CA               	goto	l1870
  2775  08E8                     u1890:
  2776  08E8                     l1878:
  2777  08E8  0875               	movf	___wmul@product+1,w
  2778  08E9  00F1               	movwf	?___wmul+1
  2779  08EA  0874               	movf	___wmul@product,w
  2780  08EB  00F0               	movwf	?___wmul
  2781  08EC                     l254:
  2782  08EC  0008               	return
  2783  08ED                     __end_of___wmul:
  2784                           
  2785                           	psect	text7
  2786  0AFF                     __ptext7:	
  2787 ;; *************** function ___fltol *****************
  2788 ;; Defined at:
  2789 ;;		line 43 in file "C:\Program Files\Microchip\xc8\v2.31\pic\sources\c90\common\fltol.c"
  2790 ;; Parameters:    Size  Location     Type
  2791 ;;  f1              4   72[BANK0 ] unsigned int 
  2792 ;; Auto vars:     Size  Location     Type
  2793 ;;  exp1            1   77[BANK0 ] unsigned char 
  2794 ;;  sign1           1   76[BANK0 ] unsigned char 
  2795 ;; Return value:  Size  Location     Type
  2796 ;;                  4   72[BANK0 ] long 
  2797 ;; Registers used:
  2798 ;;		wreg, status,2, status,0
  2799 ;; Tracked objects:
  2800 ;;		On entry : 0/0
  2801 ;;		On exit  : 0/0
  2802 ;;		Unchanged: 0/0
  2803 ;; Data sizes:     COMMON   BANK0   BANK1   BANK3   BANK2
  2804 ;;      Params:         0       4       0       0       0
  2805 ;;      Locals:         0       2       0       0       0
  2806 ;;      Temps:          0       0       5       0       0
  2807 ;;      Totals:         0       6       5       0       0
  2808 ;;Total ram usage:       11 bytes
  2809 ;; Hardware stack levels used:    1
  2810 ;; This function calls:
  2811 ;;		Nothing
  2812 ;; This function is called by:
  2813 ;;		_main
  2814 ;; This function uses a non-reentrant model
  2815 ;;
  2816                           
  2817                           
  2818                           ;psect for function ___fltol
  2819  0AFF                     ___fltol:
  2820  0AFF                     l1940:	
  2821                           ;incstack = 0
  2822                           ; Regs used in ___fltol: [wreg+status,2+status,0]
  2823                           
  2824  0AFF  1003               	clrc
  2825  0B00  1283               	bcf	3,5	;RP0=0, select bank0
  2826  0B01  1303               	bcf	3,6	;RP1=0, select bank0
  2827  0B02  0D6A               	rlf	___fltol@f1+2,w
  2828  0B03  0D6B               	rlf	___fltol@f1+3,w
  2829  0B04  1683               	bsf	3,5	;RP0=1, select bank1
  2830  0B05  1303               	bcf	3,6	;RP1=0, select bank1
  2831  0B06  00AD               	movwf	??___fltol^(0+128)
  2832  0B07  082D               	movf	??___fltol^(0+128),w
  2833  0B08  1283               	bcf	3,5	;RP0=0, select bank0
  2834  0B09  1303               	bcf	3,6	;RP1=0, select bank0
  2835  0B0A  00ED               	movwf	___fltol@exp1
  2836  0B0B  086D               	movf	___fltol@exp1,w
  2837  0B0C  1D03               	btfss	3,2
  2838  0B0D  2B0F               	goto	u2021
  2839  0B0E  2B10               	goto	u2020
  2840  0B0F                     u2021:
  2841  0B0F  2B19               	goto	l1946
  2842  0B10                     u2020:
  2843  0B10                     l1942:
  2844  0B10  3000               	movlw	0
  2845  0B11  00EB               	movwf	?___fltol+3
  2846  0B12  3000               	movlw	0
  2847  0B13  00EA               	movwf	?___fltol+2
  2848  0B14  3000               	movlw	0
  2849  0B15  00E9               	movwf	?___fltol+1
  2850  0B16  3000               	movlw	0
  2851  0B17  00E8               	movwf	?___fltol
  2852  0B18  2B9A               	goto	l438
  2853  0B19                     l1946:
  2854  0B19  0868               	movf	___fltol@f1,w
  2855  0B1A  1683               	bsf	3,5	;RP0=1, select bank1
  2856  0B1B  1303               	bcf	3,6	;RP1=0, select bank1
  2857  0B1C  00AD               	movwf	??___fltol^(0+128)
  2858  0B1D  1283               	bcf	3,5	;RP0=0, select bank0
  2859  0B1E  1303               	bcf	3,6	;RP1=0, select bank0
  2860  0B1F  0869               	movf	___fltol@f1+1,w
  2861  0B20  1683               	bsf	3,5	;RP0=1, select bank1
  2862  0B21  1303               	bcf	3,6	;RP1=0, select bank1
  2863  0B22  00AE               	movwf	(??___fltol^(0+128)+1)
  2864  0B23  1283               	bcf	3,5	;RP0=0, select bank0
  2865  0B24  1303               	bcf	3,6	;RP1=0, select bank0
  2866  0B25  086A               	movf	___fltol@f1+2,w
  2867  0B26  1683               	bsf	3,5	;RP0=1, select bank1
  2868  0B27  1303               	bcf	3,6	;RP1=0, select bank1
  2869  0B28  00AF               	movwf	(??___fltol^(0+128)+2)
  2870  0B29  1283               	bcf	3,5	;RP0=0, select bank0
  2871  0B2A  1303               	bcf	3,6	;RP1=0, select bank0
  2872  0B2B  086B               	movf	___fltol@f1+3,w
  2873  0B2C  1683               	bsf	3,5	;RP0=1, select bank1
  2874  0B2D  1303               	bcf	3,6	;RP1=0, select bank1
  2875  0B2E  00B0               	movwf	(??___fltol^(0+128)+3)
  2876  0B2F  301F               	movlw	31
  2877  0B30                     u2035:
  2878  0B30  1003               	clrc
  2879  0B31  0CB0               	rrf	(??___fltol^(0+128)+3),f
  2880  0B32  0CAF               	rrf	(??___fltol^(0+128)+2),f
  2881  0B33  0CAE               	rrf	(??___fltol^(0+128)+1),f
  2882  0B34  0CAD               	rrf	??___fltol^(0+128),f
  2883  0B35                     u2030:
  2884  0B35  3EFF               	addlw	-1
  2885  0B36  1D03               	skipz
  2886  0B37  2B30               	goto	u2035
  2887  0B38  082D               	movf	??___fltol^(0+128),w
  2888  0B39  00B1               	movwf	(??___fltol+4)^(0+128)
  2889  0B3A  0831               	movf	(??___fltol+4)^(0+128),w
  2890  0B3B  1283               	bcf	3,5	;RP0=0, select bank0
  2891  0B3C  1303               	bcf	3,6	;RP1=0, select bank0
  2892  0B3D  00EC               	movwf	___fltol@sign1
  2893  0B3E                     l1948:
  2894  0B3E  17EA               	bsf	___fltol@f1+2,7
  2895  0B3F                     l1950:
  2896  0B3F  30FF               	movlw	255
  2897  0B40  05E8               	andwf	___fltol@f1,f
  2898  0B41  30FF               	movlw	255
  2899  0B42  05E9               	andwf	___fltol@f1+1,f
  2900  0B43  30FF               	movlw	255
  2901  0B44  05EA               	andwf	___fltol@f1+2,f
  2902  0B45  3000               	movlw	0
  2903  0B46  05EB               	andwf	___fltol@f1+3,f
  2904  0B47                     l1952:
  2905  0B47  3096               	movlw	150
  2906  0B48  02ED               	subwf	___fltol@exp1,f
  2907  0B49                     l1954:
  2908  0B49  1FED               	btfss	___fltol@exp1,7
  2909  0B4A  2B4C               	goto	u2041
  2910  0B4B  2B4D               	goto	u2040
  2911  0B4C                     u2041:
  2912  0B4C  2B6B               	goto	l1964
  2913  0B4D                     u2040:
  2914  0B4D                     l1956:
  2915  0B4D  086D               	movf	___fltol@exp1,w
  2916  0B4E  3A80               	xorlw	128
  2917  0B4F  3E97               	addlw	151
  2918  0B50  1803               	skipnc
  2919  0B51  2B53               	goto	u2051
  2920  0B52  2B54               	goto	u2050
  2921  0B53                     u2051:
  2922  0B53  2B55               	goto	l1962
  2923  0B54                     u2050:
  2924  0B54  2B10               	goto	l1942
  2925  0B55                     l1962:
  2926  0B55  3001               	movlw	1
  2927  0B56                     u2065:
  2928  0B56  1003               	clrc
  2929  0B57  0CEB               	rrf	___fltol@f1+3,f
  2930  0B58  0CEA               	rrf	___fltol@f1+2,f
  2931  0B59  0CE9               	rrf	___fltol@f1+1,f
  2932  0B5A  0CE8               	rrf	___fltol@f1,f
  2933  0B5B  3EFF               	addlw	-1
  2934  0B5C  1D03               	skipz
  2935  0B5D  2B56               	goto	u2065
  2936  0B5E  3001               	movlw	1
  2937  0B5F  1683               	bsf	3,5	;RP0=1, select bank1
  2938  0B60  1303               	bcf	3,6	;RP1=0, select bank1
  2939  0B61  00AD               	movwf	??___fltol^(0+128)
  2940  0B62  082D               	movf	??___fltol^(0+128),w
  2941  0B63  1283               	bcf	3,5	;RP0=0, select bank0
  2942  0B64  1303               	bcf	3,6	;RP1=0, select bank0
  2943  0B65  07ED               	addwf	___fltol@exp1,f
  2944  0B66  1D03               	btfss	3,2
  2945  0B67  2B69               	goto	u2071
  2946  0B68  2B6A               	goto	u2070
  2947  0B69                     u2071:
  2948  0B69  2B55               	goto	l1962
  2949  0B6A                     u2070:
  2950  0B6A  2B8A               	goto	l1972
  2951  0B6B                     l1964:
  2952  0B6B  3020               	movlw	32
  2953  0B6C  026D               	subwf	___fltol@exp1,w
  2954  0B6D  1C03               	skipc
  2955  0B6E  2B70               	goto	u2081
  2956  0B6F  2B71               	goto	u2080
  2957  0B70                     u2081:
  2958  0B70  2B85               	goto	l445
  2959  0B71                     u2080:
  2960  0B71  2B10               	goto	l1942
  2961  0B72                     l1970:
  2962  0B72  3001               	movlw	1
  2963  0B73  1683               	bsf	3,5	;RP0=1, select bank1
  2964  0B74  1303               	bcf	3,6	;RP1=0, select bank1
  2965  0B75  00AD               	movwf	??___fltol^(0+128)
  2966  0B76                     u2095:
  2967  0B76  1003               	clrc
  2968  0B77  1283               	bcf	3,5	;RP0=0, select bank0
  2969  0B78  1303               	bcf	3,6	;RP1=0, select bank0
  2970  0B79  0DE8               	rlf	___fltol@f1,f
  2971  0B7A  0DE9               	rlf	___fltol@f1+1,f
  2972  0B7B  0DEA               	rlf	___fltol@f1+2,f
  2973  0B7C  0DEB               	rlf	___fltol@f1+3,f
  2974  0B7D  1683               	bsf	3,5	;RP0=1, select bank1
  2975  0B7E  1303               	bcf	3,6	;RP1=0, select bank1
  2976  0B7F  0BAD               	decfsz	??___fltol^(0+128),f
  2977  0B80  2B76               	goto	u2095
  2978  0B81  3001               	movlw	1
  2979  0B82  1283               	bcf	3,5	;RP0=0, select bank0
  2980  0B83  1303               	bcf	3,6	;RP1=0, select bank0
  2981  0B84  02ED               	subwf	___fltol@exp1,f
  2982  0B85                     l445:
  2983  0B85  086D               	movf	___fltol@exp1,w
  2984  0B86  1D03               	btfss	3,2
  2985  0B87  2B89               	goto	u2101
  2986  0B88  2B8A               	goto	u2100
  2987  0B89                     u2101:
  2988  0B89  2B72               	goto	l1970
  2989  0B8A                     u2100:
  2990  0B8A                     l1972:
  2991  0B8A  086C               	movf	___fltol@sign1,w
  2992  0B8B  1903               	btfsc	3,2
  2993  0B8C  2B8E               	goto	u2111
  2994  0B8D  2B8F               	goto	u2110
  2995  0B8E                     u2111:
  2996  0B8E  2B9A               	goto	l448
  2997  0B8F                     u2110:
  2998  0B8F                     l1974:
  2999  0B8F  09E8               	comf	___fltol@f1,f
  3000  0B90  09E9               	comf	___fltol@f1+1,f
  3001  0B91  09EA               	comf	___fltol@f1+2,f
  3002  0B92  09EB               	comf	___fltol@f1+3,f
  3003  0B93  0AE8               	incf	___fltol@f1,f
  3004  0B94  1903               	skipnz
  3005  0B95  0AE9               	incf	___fltol@f1+1,f
  3006  0B96  1903               	skipnz
  3007  0B97  0AEA               	incf	___fltol@f1+2,f
  3008  0B98  1903               	skipnz
  3009  0B99  0AEB               	incf	___fltol@f1+3,f
  3010  0B9A                     l448:
  3011  0B9A                     l438:
  3012  0B9A  0008               	return
  3013  0B9B                     __end_of___fltol:
  3014                           
  3015                           	psect	text8
  3016  00DD                     __ptext8:	
  3017 ;; *************** function ___flmul *****************
  3018 ;; Defined at:
  3019 ;;		line 8 in file "C:\Program Files\Microchip\xc8\v2.31\pic\sources\c90\common\sprcmul.c"
  3020 ;; Parameters:    Size  Location     Type
  3021 ;;  b               4    0[BANK0 ] long 
  3022 ;;  a               4    4[BANK0 ] long 
  3023 ;; Auto vars:     Size  Location     Type
  3024 ;;  prod            4   20[BANK0 ] struct .
  3025 ;;  grs             4   14[BANK0 ] unsigned long 
  3026 ;;  temp            2   24[BANK0 ] struct .
  3027 ;;  bexp            1   19[BANK0 ] unsigned char 
  3028 ;;  aexp            1   18[BANK0 ] unsigned char 
  3029 ;;  sign            1   13[BANK0 ] unsigned char 
  3030 ;; Return value:  Size  Location     Type
  3031 ;;                  4    0[BANK0 ] unsigned char 
  3032 ;; Registers used:
  3033 ;;		wreg, status,2, status,0, btemp+1, pclath, cstack
  3034 ;; Tracked objects:
  3035 ;;		On entry : 0/0
  3036 ;;		On exit  : 0/0
  3037 ;;		Unchanged: 0/0
  3038 ;; Data sizes:     COMMON   BANK0   BANK1   BANK3   BANK2
  3039 ;;      Params:         0       8       0       0       0
  3040 ;;      Locals:         0      13       0       0       0
  3041 ;;      Temps:          0       5       0       0       0
  3042 ;;      Totals:         0      26       0       0       0
  3043 ;;Total ram usage:       26 bytes
  3044 ;; Hardware stack levels used:    1
  3045 ;; Hardware stack levels required when called:    1
  3046 ;; This function calls:
  3047 ;;		__Umul8_16
  3048 ;; This function is called by:
  3049 ;;		_main
  3050 ;; This function uses a non-reentrant model
  3051 ;;
  3052                           
  3053                           
  3054                           ;psect for function ___flmul
  3055  00DD                     ___flmul:
  3056  00DD                     l2312:	
  3057                           ;incstack = 0
  3058                           ; Regs used in ___flmul: [wreg+status,2+status,0+btemp+1+pclath+cstack]
  3059                           
  3060  00DD  1283               	bcf	3,5	;RP0=0, select bank0
  3061  00DE  1303               	bcf	3,6	;RP1=0, select bank0
  3062  00DF  0823               	movf	___flmul@b+3,w
  3063  00E0  3980               	andlw	128
  3064  00E1  00A8               	movwf	??___flmul
  3065  00E2  0828               	movf	??___flmul,w
  3066  00E3  00AD               	movwf	___flmul@sign
  3067  00E4                     l2314:
  3068  00E4  0823               	movf	___flmul@b+3,w
  3069  00E5  00A8               	movwf	??___flmul
  3070  00E6  0728               	addwf	??___flmul,w
  3071  00E7  00A9               	movwf	??___flmul+1
  3072  00E8  0829               	movf	??___flmul+1,w
  3073  00E9  00B3               	movwf	___flmul@bexp
  3074  00EA                     l2316:
  3075  00EA  1FA2               	btfss	___flmul@b+2,7
  3076  00EB  28ED               	goto	u2871
  3077  00EC  28EE               	goto	u2870
  3078  00ED                     u2871:
  3079  00ED  28EF               	goto	l2320
  3080  00EE                     u2870:
  3081  00EE                     l2318:
  3082  00EE  1433               	bsf	___flmul@bexp,0
  3083  00EF                     l2320:
  3084  00EF  0833               	movf	___flmul@bexp,w
  3085  00F0  1903               	btfsc	3,2
  3086  00F1  28F3               	goto	u2881
  3087  00F2  28F4               	goto	u2880
  3088  00F3                     u2881:
  3089  00F3  2903               	goto	l2328
  3090  00F4                     u2880:
  3091  00F4                     l2322:
  3092  00F4  0A33               	incf	___flmul@bexp,w
  3093  00F5  1D03               	btfss	3,2
  3094  00F6  28F8               	goto	u2891
  3095  00F7  28F9               	goto	u2890
  3096  00F8                     u2891:
  3097  00F8  2901               	goto	l2326
  3098  00F9                     u2890:
  3099  00F9                     l2324:
  3100  00F9  3000               	movlw	0
  3101  00FA  00A3               	movwf	___flmul@b+3
  3102  00FB  3000               	movlw	0
  3103  00FC  00A2               	movwf	___flmul@b+2
  3104  00FD  3000               	movlw	0
  3105  00FE  00A1               	movwf	___flmul@b+1
  3106  00FF  3000               	movlw	0
  3107  0100  00A0               	movwf	___flmul@b
  3108  0101                     l2326:
  3109  0101  17A2               	bsf	___flmul@b+2,7
  3110  0102  290B               	goto	l2330
  3111  0103                     l2328:
  3112  0103  3000               	movlw	0
  3113  0104  00A3               	movwf	___flmul@b+3
  3114  0105  3000               	movlw	0
  3115  0106  00A2               	movwf	___flmul@b+2
  3116  0107  3000               	movlw	0
  3117  0108  00A1               	movwf	___flmul@b+1
  3118  0109  3000               	movlw	0
  3119  010A  00A0               	movwf	___flmul@b
  3120  010B                     l2330:
  3121  010B  0827               	movf	___flmul@a+3,w
  3122  010C  3980               	andlw	128
  3123  010D  00A8               	movwf	??___flmul
  3124  010E  0828               	movf	??___flmul,w
  3125  010F  06AD               	xorwf	___flmul@sign,f
  3126  0110                     l2332:
  3127  0110  0827               	movf	___flmul@a+3,w
  3128  0111  00A8               	movwf	??___flmul
  3129  0112  0728               	addwf	??___flmul,w
  3130  0113  00A9               	movwf	??___flmul+1
  3131  0114  0829               	movf	??___flmul+1,w
  3132  0115  00B2               	movwf	___flmul@aexp
  3133  0116                     l2334:
  3134  0116  1FA6               	btfss	___flmul@a+2,7
  3135  0117  2919               	goto	u2901
  3136  0118  291A               	goto	u2900
  3137  0119                     u2901:
  3138  0119  291B               	goto	l2338
  3139  011A                     u2900:
  3140  011A                     l2336:
  3141  011A  1432               	bsf	___flmul@aexp,0
  3142  011B                     l2338:
  3143  011B  0832               	movf	___flmul@aexp,w
  3144  011C  1903               	btfsc	3,2
  3145  011D  291F               	goto	u2911
  3146  011E  2920               	goto	u2910
  3147  011F                     u2911:
  3148  011F  292F               	goto	l2346
  3149  0120                     u2910:
  3150  0120                     l2340:
  3151  0120  0A32               	incf	___flmul@aexp,w
  3152  0121  1D03               	btfss	3,2
  3153  0122  2924               	goto	u2921
  3154  0123  2925               	goto	u2920
  3155  0124                     u2921:
  3156  0124  292D               	goto	l2344
  3157  0125                     u2920:
  3158  0125                     l2342:
  3159  0125  3000               	movlw	0
  3160  0126  00A7               	movwf	___flmul@a+3
  3161  0127  3000               	movlw	0
  3162  0128  00A6               	movwf	___flmul@a+2
  3163  0129  3000               	movlw	0
  3164  012A  00A5               	movwf	___flmul@a+1
  3165  012B  3000               	movlw	0
  3166  012C  00A4               	movwf	___flmul@a
  3167  012D                     l2344:
  3168  012D  17A6               	bsf	___flmul@a+2,7
  3169  012E  2937               	goto	l2348
  3170  012F                     l2346:
  3171  012F  3000               	movlw	0
  3172  0130  00A7               	movwf	___flmul@a+3
  3173  0131  3000               	movlw	0
  3174  0132  00A6               	movwf	___flmul@a+2
  3175  0133  3000               	movlw	0
  3176  0134  00A5               	movwf	___flmul@a+1
  3177  0135  3000               	movlw	0
  3178  0136  00A4               	movwf	___flmul@a
  3179  0137                     l2348:
  3180  0137  0832               	movf	___flmul@aexp,w
  3181  0138  1903               	btfsc	3,2
  3182  0139  293B               	goto	u2931
  3183  013A  293C               	goto	u2930
  3184  013B                     u2931:
  3185  013B  2941               	goto	l2352
  3186  013C                     u2930:
  3187  013C                     l2350:
  3188  013C  0833               	movf	___flmul@bexp,w
  3189  013D  1D03               	btfss	3,2
  3190  013E  2940               	goto	u2941
  3191  013F  2941               	goto	u2940
  3192  0140                     u2941:
  3193  0140  294A               	goto	l2356
  3194  0141                     u2940:
  3195  0141                     l2352:
  3196  0141  3000               	movlw	0
  3197  0142  00A3               	movwf	?___flmul+3
  3198  0143  3000               	movlw	0
  3199  0144  00A2               	movwf	?___flmul+2
  3200  0145  3000               	movlw	0
  3201  0146  00A1               	movwf	?___flmul+1
  3202  0147  3000               	movlw	0
  3203  0148  00A0               	movwf	?___flmul
  3204  0149  2C3D               	goto	l641
  3205  014A                     l2356:
  3206  014A  0820               	movf	___flmul@b,w
  3207  014B  00A8               	movwf	??___flmul
  3208  014C  0828               	movf	??___flmul,w
  3209  014D  00F0               	movwf	__Umul8_16@multiplicand
  3210  014E  0826               	movf	___flmul@a+2,w
  3211  014F  120A  158A  20ED  120A  118A  	fcall	__Umul8_16
  3212  0154  0871               	movf	?__Umul8_16+1,w
  3213  0155  1283               	bcf	3,5	;RP0=0, select bank0
  3214  0156  1303               	bcf	3,6	;RP1=0, select bank0
  3215  0157  00B9               	movwf	___flmul@temp+1
  3216  0158  0870               	movf	?__Umul8_16,w
  3217  0159  00B8               	movwf	___flmul@temp
  3218  015A                     l2358:
  3219  015A  0838               	movf	___flmul@temp,w
  3220  015B  00A8               	movwf	??___flmul
  3221  015C  01A9               	clrf	??___flmul+1
  3222  015D  01AA               	clrf	??___flmul+2
  3223  015E  01AB               	clrf	??___flmul+3
  3224  015F  082B               	movf	??___flmul+3,w
  3225  0160  00B1               	movwf	___flmul@grs+3
  3226  0161  082A               	movf	??___flmul+2,w
  3227  0162  00B0               	movwf	___flmul@grs+2
  3228  0163  0829               	movf	??___flmul+1,w
  3229  0164  00AF               	movwf	___flmul@grs+1
  3230  0165  0828               	movf	??___flmul,w
  3231  0166  00AE               	movwf	___flmul@grs
  3232  0167                     l2360:
  3233  0167  0839               	movf	___flmul@temp+1,w
  3234  0168  00A8               	movwf	??___flmul
  3235  0169  01A9               	clrf	??___flmul+1
  3236  016A  01AA               	clrf	??___flmul+2
  3237  016B  01AB               	clrf	??___flmul+3
  3238  016C  082B               	movf	??___flmul+3,w
  3239  016D  00B7               	movwf	___flmul@prod+3
  3240  016E  082A               	movf	??___flmul+2,w
  3241  016F  00B6               	movwf	___flmul@prod+2
  3242  0170  0829               	movf	??___flmul+1,w
  3243  0171  00B5               	movwf	___flmul@prod+1
  3244  0172  0828               	movf	??___flmul,w
  3245  0173  00B4               	movwf	___flmul@prod
  3246  0174  0821               	movf	___flmul@b+1,w
  3247  0175  00A8               	movwf	??___flmul
  3248  0176  0828               	movf	??___flmul,w
  3249  0177  00F0               	movwf	__Umul8_16@multiplicand
  3250  0178  0825               	movf	___flmul@a+1,w
  3251  0179  120A  158A  20ED  120A  118A  	fcall	__Umul8_16
  3252  017E  0871               	movf	?__Umul8_16+1,w
  3253  017F  1283               	bcf	3,5	;RP0=0, select bank0
  3254  0180  1303               	bcf	3,6	;RP1=0, select bank0
  3255  0181  00B9               	movwf	___flmul@temp+1
  3256  0182  0870               	movf	?__Umul8_16,w
  3257  0183  00B8               	movwf	___flmul@temp
  3258  0184                     l2362:
  3259  0184  0838               	movf	___flmul@temp,w
  3260  0185  00A8               	movwf	??___flmul
  3261  0186  01A9               	clrf	??___flmul+1
  3262  0187  01AA               	clrf	??___flmul+2
  3263  0188  01AB               	clrf	??___flmul+3
  3264  0189  0828               	movf	??___flmul,w
  3265  018A  07AE               	addwf	___flmul@grs,f
  3266  018B  0829               	movf	??___flmul+1,w
  3267  018C  1103               	clrz
  3268  018D  1803               	skipnc
  3269  018E  3E01               	addlw	1
  3270  018F  1903               	skipnz
  3271  0190  2992               	goto	u2951
  3272  0191  07AF               	addwf	___flmul@grs+1,f
  3273  0192                     u2951:
  3274  0192  082A               	movf	??___flmul+2,w
  3275  0193  1103               	clrz
  3276  0194  1803               	skipnc
  3277  0195  3E01               	addlw	1
  3278  0196  1903               	skipnz
  3279  0197  2999               	goto	u2952
  3280  0198  07B0               	addwf	___flmul@grs+2,f
  3281  0199                     u2952:
  3282  0199  082B               	movf	??___flmul+3,w
  3283  019A  1103               	clrz
  3284  019B  1803               	skipnc
  3285  019C  3E01               	addlw	1
  3286  019D  1903               	skipnz
  3287  019E  29A0               	goto	u2953
  3288  019F  07B1               	addwf	___flmul@grs+3,f
  3289  01A0                     u2953:
  3290  01A0                     l2364:
  3291  01A0  0839               	movf	___flmul@temp+1,w
  3292  01A1  00A8               	movwf	??___flmul
  3293  01A2  01A9               	clrf	??___flmul+1
  3294  01A3  01AA               	clrf	??___flmul+2
  3295  01A4  01AB               	clrf	??___flmul+3
  3296  01A5  0828               	movf	??___flmul,w
  3297  01A6  07B4               	addwf	___flmul@prod,f
  3298  01A7  0829               	movf	??___flmul+1,w
  3299  01A8  1103               	clrz
  3300  01A9  1803               	skipnc
  3301  01AA  3E01               	addlw	1
  3302  01AB  1903               	skipnz
  3303  01AC  29AE               	goto	u2961
  3304  01AD  07B5               	addwf	___flmul@prod+1,f
  3305  01AE                     u2961:
  3306  01AE  082A               	movf	??___flmul+2,w
  3307  01AF  1103               	clrz
  3308  01B0  1803               	skipnc
  3309  01B1  3E01               	addlw	1
  3310  01B2  1903               	skipnz
  3311  01B3  29B5               	goto	u2962
  3312  01B4  07B6               	addwf	___flmul@prod+2,f
  3313  01B5                     u2962:
  3314  01B5  082B               	movf	??___flmul+3,w
  3315  01B6  1103               	clrz
  3316  01B7  1803               	skipnc
  3317  01B8  3E01               	addlw	1
  3318  01B9  1903               	skipnz
  3319  01BA  29BC               	goto	u2963
  3320  01BB  07B7               	addwf	___flmul@prod+3,f
  3321  01BC                     u2963:
  3322  01BC  0822               	movf	___flmul@b+2,w
  3323  01BD  00A8               	movwf	??___flmul
  3324  01BE  0828               	movf	??___flmul,w
  3325  01BF  00F0               	movwf	__Umul8_16@multiplicand
  3326  01C0  0824               	movf	___flmul@a,w
  3327  01C1  120A  158A  20ED  120A  118A  	fcall	__Umul8_16
  3328  01C6  0871               	movf	?__Umul8_16+1,w
  3329  01C7  1283               	bcf	3,5	;RP0=0, select bank0
  3330  01C8  1303               	bcf	3,6	;RP1=0, select bank0
  3331  01C9  00B9               	movwf	___flmul@temp+1
  3332  01CA  0870               	movf	?__Umul8_16,w
  3333  01CB  00B8               	movwf	___flmul@temp
  3334  01CC                     l2366:
  3335  01CC  0838               	movf	___flmul@temp,w
  3336  01CD  00A8               	movwf	??___flmul
  3337  01CE  01A9               	clrf	??___flmul+1
  3338  01CF  01AA               	clrf	??___flmul+2
  3339  01D0  01AB               	clrf	??___flmul+3
  3340  01D1  0828               	movf	??___flmul,w
  3341  01D2  07AE               	addwf	___flmul@grs,f
  3342  01D3  0829               	movf	??___flmul+1,w
  3343  01D4  1103               	clrz
  3344  01D5  1803               	skipnc
  3345  01D6  3E01               	addlw	1
  3346  01D7  1903               	skipnz
  3347  01D8  29DA               	goto	u2971
  3348  01D9  07AF               	addwf	___flmul@grs+1,f
  3349  01DA                     u2971:
  3350  01DA  082A               	movf	??___flmul+2,w
  3351  01DB  1103               	clrz
  3352  01DC  1803               	skipnc
  3353  01DD  3E01               	addlw	1
  3354  01DE  1903               	skipnz
  3355  01DF  29E1               	goto	u2972
  3356  01E0  07B0               	addwf	___flmul@grs+2,f
  3357  01E1                     u2972:
  3358  01E1  082B               	movf	??___flmul+3,w
  3359  01E2  1103               	clrz
  3360  01E3  1803               	skipnc
  3361  01E4  3E01               	addlw	1
  3362  01E5  1903               	skipnz
  3363  01E6  29E8               	goto	u2973
  3364  01E7  07B1               	addwf	___flmul@grs+3,f
  3365  01E8                     u2973:
  3366  01E8                     l2368:
  3367  01E8  0839               	movf	___flmul@temp+1,w
  3368  01E9  00A8               	movwf	??___flmul
  3369  01EA  01A9               	clrf	??___flmul+1
  3370  01EB  01AA               	clrf	??___flmul+2
  3371  01EC  01AB               	clrf	??___flmul+3
  3372  01ED  0828               	movf	??___flmul,w
  3373  01EE  07B4               	addwf	___flmul@prod,f
  3374  01EF  0829               	movf	??___flmul+1,w
  3375  01F0  1103               	clrz
  3376  01F1  1803               	skipnc
  3377  01F2  3E01               	addlw	1
  3378  01F3  1903               	skipnz
  3379  01F4  29F6               	goto	u2981
  3380  01F5  07B5               	addwf	___flmul@prod+1,f
  3381  01F6                     u2981:
  3382  01F6  082A               	movf	??___flmul+2,w
  3383  01F7  1103               	clrz
  3384  01F8  1803               	skipnc
  3385  01F9  3E01               	addlw	1
  3386  01FA  1903               	skipnz
  3387  01FB  29FD               	goto	u2982
  3388  01FC  07B6               	addwf	___flmul@prod+2,f
  3389  01FD                     u2982:
  3390  01FD  082B               	movf	??___flmul+3,w
  3391  01FE  1103               	clrz
  3392  01FF  1803               	skipnc
  3393  0200  3E01               	addlw	1
  3394  0201  1903               	skipnz
  3395  0202  2A04               	goto	u2983
  3396  0203  07B7               	addwf	___flmul@prod+3,f
  3397  0204                     u2983:
  3398  0204                     l2370:
  3399  0204  3008               	movlw	8
  3400  0205  00A8               	movwf	??___flmul
  3401  0206                     u2995:
  3402  0206  1003               	clrc
  3403  0207  0DAE               	rlf	___flmul@grs,f
  3404  0208  0DAF               	rlf	___flmul@grs+1,f
  3405  0209  0DB0               	rlf	___flmul@grs+2,f
  3406  020A  0DB1               	rlf	___flmul@grs+3,f
  3407  020B  0BA8               	decfsz	??___flmul,f
  3408  020C  2A06               	goto	u2995
  3409  020D                     l2372:
  3410  020D  0821               	movf	___flmul@b+1,w
  3411  020E  00A8               	movwf	??___flmul
  3412  020F  0828               	movf	??___flmul,w
  3413  0210  00F0               	movwf	__Umul8_16@multiplicand
  3414  0211  0824               	movf	___flmul@a,w
  3415  0212  120A  158A  20ED  120A  118A  	fcall	__Umul8_16
  3416  0217  0871               	movf	?__Umul8_16+1,w
  3417  0218  1283               	bcf	3,5	;RP0=0, select bank0
  3418  0219  1303               	bcf	3,6	;RP1=0, select bank0
  3419  021A  00B9               	movwf	___flmul@temp+1
  3420  021B  0870               	movf	?__Umul8_16,w
  3421  021C  00B8               	movwf	___flmul@temp
  3422  021D                     l2374:
  3423  021D  0838               	movf	___flmul@temp,w
  3424  021E  00A8               	movwf	??___flmul
  3425  021F  0839               	movf	___flmul@temp+1,w
  3426  0220  00A9               	movwf	??___flmul+1
  3427  0221  01AA               	clrf	??___flmul+2
  3428  0222  01AB               	clrf	??___flmul+3
  3429  0223  0828               	movf	??___flmul,w
  3430  0224  07AE               	addwf	___flmul@grs,f
  3431  0225  0829               	movf	??___flmul+1,w
  3432  0226  1103               	clrz
  3433  0227  1803               	skipnc
  3434  0228  3E01               	addlw	1
  3435  0229  1903               	skipnz
  3436  022A  2A2C               	goto	u3001
  3437  022B  07AF               	addwf	___flmul@grs+1,f
  3438  022C                     u3001:
  3439  022C  082A               	movf	??___flmul+2,w
  3440  022D  1103               	clrz
  3441  022E  1803               	skipnc
  3442  022F  3E01               	addlw	1
  3443  0230  1903               	skipnz
  3444  0231  2A33               	goto	u3002
  3445  0232  07B0               	addwf	___flmul@grs+2,f
  3446  0233                     u3002:
  3447  0233  082B               	movf	??___flmul+3,w
  3448  0234  1103               	clrz
  3449  0235  1803               	skipnc
  3450  0236  3E01               	addlw	1
  3451  0237  1903               	skipnz
  3452  0238  2A3A               	goto	u3003
  3453  0239  07B1               	addwf	___flmul@grs+3,f
  3454  023A                     u3003:
  3455  023A                     l2376:
  3456  023A  0820               	movf	___flmul@b,w
  3457  023B  00A8               	movwf	??___flmul
  3458  023C  0828               	movf	??___flmul,w
  3459  023D  00F0               	movwf	__Umul8_16@multiplicand
  3460  023E  0825               	movf	___flmul@a+1,w
  3461  023F  120A  158A  20ED  120A  118A  	fcall	__Umul8_16
  3462  0244  0871               	movf	?__Umul8_16+1,w
  3463  0245  1283               	bcf	3,5	;RP0=0, select bank0
  3464  0246  1303               	bcf	3,6	;RP1=0, select bank0
  3465  0247  00B9               	movwf	___flmul@temp+1
  3466  0248  0870               	movf	?__Umul8_16,w
  3467  0249  00B8               	movwf	___flmul@temp
  3468  024A                     l2378:
  3469  024A  0838               	movf	___flmul@temp,w
  3470  024B  00A8               	movwf	??___flmul
  3471  024C  0839               	movf	___flmul@temp+1,w
  3472  024D  00A9               	movwf	??___flmul+1
  3473  024E  01AA               	clrf	??___flmul+2
  3474  024F  01AB               	clrf	??___flmul+3
  3475  0250  0828               	movf	??___flmul,w
  3476  0251  07AE               	addwf	___flmul@grs,f
  3477  0252  0829               	movf	??___flmul+1,w
  3478  0253  1103               	clrz
  3479  0254  1803               	skipnc
  3480  0255  3E01               	addlw	1
  3481  0256  1903               	skipnz
  3482  0257  2A59               	goto	u3011
  3483  0258  07AF               	addwf	___flmul@grs+1,f
  3484  0259                     u3011:
  3485  0259  082A               	movf	??___flmul+2,w
  3486  025A  1103               	clrz
  3487  025B  1803               	skipnc
  3488  025C  3E01               	addlw	1
  3489  025D  1903               	skipnz
  3490  025E  2A60               	goto	u3012
  3491  025F  07B0               	addwf	___flmul@grs+2,f
  3492  0260                     u3012:
  3493  0260  082B               	movf	??___flmul+3,w
  3494  0261  1103               	clrz
  3495  0262  1803               	skipnc
  3496  0263  3E01               	addlw	1
  3497  0264  1903               	skipnz
  3498  0265  2A67               	goto	u3013
  3499  0266  07B1               	addwf	___flmul@grs+3,f
  3500  0267                     u3013:
  3501  0267                     l2380:
  3502  0267  3008               	movlw	8
  3503  0268  00A8               	movwf	??___flmul
  3504  0269                     u3025:
  3505  0269  1003               	clrc
  3506  026A  0DAE               	rlf	___flmul@grs,f
  3507  026B  0DAF               	rlf	___flmul@grs+1,f
  3508  026C  0DB0               	rlf	___flmul@grs+2,f
  3509  026D  0DB1               	rlf	___flmul@grs+3,f
  3510  026E  0BA8               	decfsz	??___flmul,f
  3511  026F  2A69               	goto	u3025
  3512  0270  0820               	movf	___flmul@b,w
  3513  0271  00A8               	movwf	??___flmul
  3514  0272  0828               	movf	??___flmul,w
  3515  0273  00F0               	movwf	__Umul8_16@multiplicand
  3516  0274  0824               	movf	___flmul@a,w
  3517  0275  120A  158A  20ED  120A  118A  	fcall	__Umul8_16
  3518  027A  0871               	movf	?__Umul8_16+1,w
  3519  027B  1283               	bcf	3,5	;RP0=0, select bank0
  3520  027C  1303               	bcf	3,6	;RP1=0, select bank0
  3521  027D  00B9               	movwf	___flmul@temp+1
  3522  027E  0870               	movf	?__Umul8_16,w
  3523  027F  00B8               	movwf	___flmul@temp
  3524  0280                     l2382:
  3525  0280  0838               	movf	___flmul@temp,w
  3526  0281  00A8               	movwf	??___flmul
  3527  0282  0839               	movf	___flmul@temp+1,w
  3528  0283  00A9               	movwf	??___flmul+1
  3529  0284  01AA               	clrf	??___flmul+2
  3530  0285  01AB               	clrf	??___flmul+3
  3531  0286  0828               	movf	??___flmul,w
  3532  0287  07AE               	addwf	___flmul@grs,f
  3533  0288  0829               	movf	??___flmul+1,w
  3534  0289  1103               	clrz
  3535  028A  1803               	skipnc
  3536  028B  3E01               	addlw	1
  3537  028C  1903               	skipnz
  3538  028D  2A8F               	goto	u3031
  3539  028E  07AF               	addwf	___flmul@grs+1,f
  3540  028F                     u3031:
  3541  028F  082A               	movf	??___flmul+2,w
  3542  0290  1103               	clrz
  3543  0291  1803               	skipnc
  3544  0292  3E01               	addlw	1
  3545  0293  1903               	skipnz
  3546  0294  2A96               	goto	u3032
  3547  0295  07B0               	addwf	___flmul@grs+2,f
  3548  0296                     u3032:
  3549  0296  082B               	movf	??___flmul+3,w
  3550  0297  1103               	clrz
  3551  0298  1803               	skipnc
  3552  0299  3E01               	addlw	1
  3553  029A  1903               	skipnz
  3554  029B  2A9D               	goto	u3033
  3555  029C  07B1               	addwf	___flmul@grs+3,f
  3556  029D                     u3033:
  3557  029D                     l2384:
  3558  029D  0821               	movf	___flmul@b+1,w
  3559  029E  00A8               	movwf	??___flmul
  3560  029F  0828               	movf	??___flmul,w
  3561  02A0  00F0               	movwf	__Umul8_16@multiplicand
  3562  02A1  0826               	movf	___flmul@a+2,w
  3563  02A2  120A  158A  20ED  120A  118A  	fcall	__Umul8_16
  3564  02A7  0871               	movf	?__Umul8_16+1,w
  3565  02A8  1283               	bcf	3,5	;RP0=0, select bank0
  3566  02A9  1303               	bcf	3,6	;RP1=0, select bank0
  3567  02AA  00B9               	movwf	___flmul@temp+1
  3568  02AB  0870               	movf	?__Umul8_16,w
  3569  02AC  00B8               	movwf	___flmul@temp
  3570  02AD  0838               	movf	___flmul@temp,w
  3571  02AE  00A8               	movwf	??___flmul
  3572  02AF  0839               	movf	___flmul@temp+1,w
  3573  02B0  00A9               	movwf	??___flmul+1
  3574  02B1  01AA               	clrf	??___flmul+2
  3575  02B2  01AB               	clrf	??___flmul+3
  3576  02B3  0828               	movf	??___flmul,w
  3577  02B4  07B4               	addwf	___flmul@prod,f
  3578  02B5  0829               	movf	??___flmul+1,w
  3579  02B6  1103               	clrz
  3580  02B7  1803               	skipnc
  3581  02B8  3E01               	addlw	1
  3582  02B9  1903               	skipnz
  3583  02BA  2ABC               	goto	u3041
  3584  02BB  07B5               	addwf	___flmul@prod+1,f
  3585  02BC                     u3041:
  3586  02BC  082A               	movf	??___flmul+2,w
  3587  02BD  1103               	clrz
  3588  02BE  1803               	skipnc
  3589  02BF  3E01               	addlw	1
  3590  02C0  1903               	skipnz
  3591  02C1  2AC3               	goto	u3042
  3592  02C2  07B6               	addwf	___flmul@prod+2,f
  3593  02C3                     u3042:
  3594  02C3  082B               	movf	??___flmul+3,w
  3595  02C4  1103               	clrz
  3596  02C5  1803               	skipnc
  3597  02C6  3E01               	addlw	1
  3598  02C7  1903               	skipnz
  3599  02C8  2ACA               	goto	u3043
  3600  02C9  07B7               	addwf	___flmul@prod+3,f
  3601  02CA                     u3043:
  3602  02CA                     l2386:
  3603  02CA  0822               	movf	___flmul@b+2,w
  3604  02CB  00A8               	movwf	??___flmul
  3605  02CC  0828               	movf	??___flmul,w
  3606  02CD  00F0               	movwf	__Umul8_16@multiplicand
  3607  02CE  0825               	movf	___flmul@a+1,w
  3608  02CF  120A  158A  20ED  120A  118A  	fcall	__Umul8_16
  3609  02D4  0871               	movf	?__Umul8_16+1,w
  3610  02D5  1283               	bcf	3,5	;RP0=0, select bank0
  3611  02D6  1303               	bcf	3,6	;RP1=0, select bank0
  3612  02D7  00B9               	movwf	___flmul@temp+1
  3613  02D8  0870               	movf	?__Umul8_16,w
  3614  02D9  00B8               	movwf	___flmul@temp
  3615  02DA                     l2388:
  3616  02DA  0838               	movf	___flmul@temp,w
  3617  02DB  00A8               	movwf	??___flmul
  3618  02DC  0839               	movf	___flmul@temp+1,w
  3619  02DD  00A9               	movwf	??___flmul+1
  3620  02DE  01AA               	clrf	??___flmul+2
  3621  02DF  01AB               	clrf	??___flmul+3
  3622  02E0  0828               	movf	??___flmul,w
  3623  02E1  07B4               	addwf	___flmul@prod,f
  3624  02E2  0829               	movf	??___flmul+1,w
  3625  02E3  1103               	clrz
  3626  02E4  1803               	skipnc
  3627  02E5  3E01               	addlw	1
  3628  02E6  1903               	skipnz
  3629  02E7  2AE9               	goto	u3051
  3630  02E8  07B5               	addwf	___flmul@prod+1,f
  3631  02E9                     u3051:
  3632  02E9  082A               	movf	??___flmul+2,w
  3633  02EA  1103               	clrz
  3634  02EB  1803               	skipnc
  3635  02EC  3E01               	addlw	1
  3636  02ED  1903               	skipnz
  3637  02EE  2AF0               	goto	u3052
  3638  02EF  07B6               	addwf	___flmul@prod+2,f
  3639  02F0                     u3052:
  3640  02F0  082B               	movf	??___flmul+3,w
  3641  02F1  1103               	clrz
  3642  02F2  1803               	skipnc
  3643  02F3  3E01               	addlw	1
  3644  02F4  1903               	skipnz
  3645  02F5  2AF7               	goto	u3053
  3646  02F6  07B7               	addwf	___flmul@prod+3,f
  3647  02F7                     u3053:
  3648  02F7  0822               	movf	___flmul@b+2,w
  3649  02F8  00A8               	movwf	??___flmul
  3650  02F9  0828               	movf	??___flmul,w
  3651  02FA  00F0               	movwf	__Umul8_16@multiplicand
  3652  02FB  0826               	movf	___flmul@a+2,w
  3653  02FC  120A  158A  20ED  120A  118A  	fcall	__Umul8_16
  3654  0301  0871               	movf	?__Umul8_16+1,w
  3655  0302  1283               	bcf	3,5	;RP0=0, select bank0
  3656  0303  1303               	bcf	3,6	;RP1=0, select bank0
  3657  0304  00B9               	movwf	___flmul@temp+1
  3658  0305  0870               	movf	?__Umul8_16,w
  3659  0306  00B8               	movwf	___flmul@temp
  3660  0307                     l2390:
  3661  0307  0838               	movf	___flmul@temp,w
  3662  0308  00A8               	movwf	??___flmul
  3663  0309  0839               	movf	___flmul@temp+1,w
  3664  030A  00A9               	movwf	??___flmul+1
  3665  030B  01AA               	clrf	??___flmul+2
  3666  030C  01AB               	clrf	??___flmul+3
  3667  030D  3008               	movlw	8
  3668  030E                     u3065:
  3669  030E  1003               	clrc
  3670  030F  0DA8               	rlf	??___flmul,f
  3671  0310  0DA9               	rlf	??___flmul+1,f
  3672  0311  0DAA               	rlf	??___flmul+2,f
  3673  0312  0DAB               	rlf	??___flmul+3,f
  3674  0313                     u3060:
  3675  0313  3EFF               	addlw	-1
  3676  0314  1D03               	skipz
  3677  0315  2B0E               	goto	u3065
  3678  0316  0828               	movf	??___flmul,w
  3679  0317  07B4               	addwf	___flmul@prod,f
  3680  0318  0829               	movf	??___flmul+1,w
  3681  0319  1103               	clrz
  3682  031A  1803               	skipnc
  3683  031B  3E01               	addlw	1
  3684  031C  1903               	skipnz
  3685  031D  2B1F               	goto	u3071
  3686  031E  07B5               	addwf	___flmul@prod+1,f
  3687  031F                     u3071:
  3688  031F  082A               	movf	??___flmul+2,w
  3689  0320  1103               	clrz
  3690  0321  1803               	skipnc
  3691  0322  3E01               	addlw	1
  3692  0323  1903               	skipnz
  3693  0324  2B26               	goto	u3072
  3694  0325  07B6               	addwf	___flmul@prod+2,f
  3695  0326                     u3072:
  3696  0326  082B               	movf	??___flmul+3,w
  3697  0327  1103               	clrz
  3698  0328  1803               	skipnc
  3699  0329  3E01               	addlw	1
  3700  032A  1903               	skipnz
  3701  032B  2B2D               	goto	u3073
  3702  032C  07B7               	addwf	___flmul@prod+3,f
  3703  032D                     u3073:
  3704  032D                     l2392:
  3705  032D  082E               	movf	___flmul@grs,w
  3706  032E  00A8               	movwf	??___flmul
  3707  032F  082F               	movf	___flmul@grs+1,w
  3708  0330  00A9               	movwf	??___flmul+1
  3709  0331  0830               	movf	___flmul@grs+2,w
  3710  0332  00AA               	movwf	??___flmul+2
  3711  0333  0831               	movf	___flmul@grs+3,w
  3712  0334  00AB               	movwf	??___flmul+3
  3713  0335  3018               	movlw	24
  3714  0336                     u3085:
  3715  0336  1003               	clrc
  3716  0337  0CAB               	rrf	??___flmul+3,f
  3717  0338  0CAA               	rrf	??___flmul+2,f
  3718  0339  0CA9               	rrf	??___flmul+1,f
  3719  033A  0CA8               	rrf	??___flmul,f
  3720  033B                     u3080:
  3721  033B  3EFF               	addlw	-1
  3722  033C  1D03               	skipz
  3723  033D  2B36               	goto	u3085
  3724  033E  0828               	movf	??___flmul,w
  3725  033F  07B4               	addwf	___flmul@prod,f
  3726  0340  0829               	movf	??___flmul+1,w
  3727  0341  1103               	clrz
  3728  0342  1803               	skipnc
  3729  0343  3E01               	addlw	1
  3730  0344  1903               	skipnz
  3731  0345  2B47               	goto	u3091
  3732  0346  07B5               	addwf	___flmul@prod+1,f
  3733  0347                     u3091:
  3734  0347  082A               	movf	??___flmul+2,w
  3735  0348  1103               	clrz
  3736  0349  1803               	skipnc
  3737  034A  3E01               	addlw	1
  3738  034B  1903               	skipnz
  3739  034C  2B4E               	goto	u3092
  3740  034D  07B6               	addwf	___flmul@prod+2,f
  3741  034E                     u3092:
  3742  034E  082B               	movf	??___flmul+3,w
  3743  034F  1103               	clrz
  3744  0350  1803               	skipnc
  3745  0351  3E01               	addlw	1
  3746  0352  1903               	skipnz
  3747  0353  2B55               	goto	u3093
  3748  0354  07B7               	addwf	___flmul@prod+3,f
  3749  0355                     u3093:
  3750  0355                     l2394:
  3751  0355  3008               	movlw	8
  3752  0356  00A8               	movwf	??___flmul
  3753  0357                     u3105:
  3754  0357  1003               	clrc
  3755  0358  0DAE               	rlf	___flmul@grs,f
  3756  0359  0DAF               	rlf	___flmul@grs+1,f
  3757  035A  0DB0               	rlf	___flmul@grs+2,f
  3758  035B  0DB1               	rlf	___flmul@grs+3,f
  3759  035C  0BA8               	decfsz	??___flmul,f
  3760  035D  2B57               	goto	u3105
  3761  035E                     l2396:
  3762  035E  0833               	movf	___flmul@bexp,w
  3763  035F  0732               	addwf	___flmul@aexp,w
  3764  0360  00A8               	movwf	??___flmul
  3765  0361  01A9               	clrf	??___flmul+1
  3766  0362  0DA9               	rlf	??___flmul+1,f
  3767  0363  0828               	movf	??___flmul,w
  3768  0364  3E82               	addlw	130
  3769  0365  00B8               	movwf	___flmul@temp
  3770  0366  0829               	movf	??___flmul+1,w
  3771  0367  1803               	skipnc
  3772  0368  3E01               	addlw	1
  3773  0369  3EFF               	addlw	255
  3774  036A  00B9               	movwf	___flmul@temp+1
  3775  036B  2B89               	goto	l2408
  3776  036C                     l2398:
  3777  036C  3001               	movlw	1
  3778  036D  00A8               	movwf	??___flmul
  3779  036E                     u3115:
  3780  036E  1003               	clrc
  3781  036F  0DB4               	rlf	___flmul@prod,f
  3782  0370  0DB5               	rlf	___flmul@prod+1,f
  3783  0371  0DB6               	rlf	___flmul@prod+2,f
  3784  0372  0DB7               	rlf	___flmul@prod+3,f
  3785  0373  0BA8               	decfsz	??___flmul,f
  3786  0374  2B6E               	goto	u3115
  3787  0375                     l2400:
  3788  0375  1FB1               	btfss	___flmul@grs+3,7
  3789  0376  2B78               	goto	u3121
  3790  0377  2B79               	goto	u3120
  3791  0378                     u3121:
  3792  0378  2B7A               	goto	l2404
  3793  0379                     u3120:
  3794  0379                     l2402:
  3795  0379  1434               	bsf	___flmul@prod,0
  3796  037A                     l2404:
  3797  037A  3001               	movlw	1
  3798  037B  00A8               	movwf	??___flmul
  3799  037C                     u3135:
  3800  037C  1003               	clrc
  3801  037D  0DAE               	rlf	___flmul@grs,f
  3802  037E  0DAF               	rlf	___flmul@grs+1,f
  3803  037F  0DB0               	rlf	___flmul@grs+2,f
  3804  0380  0DB1               	rlf	___flmul@grs+3,f
  3805  0381  0BA8               	decfsz	??___flmul,f
  3806  0382  2B7C               	goto	u3135
  3807  0383                     l2406:
  3808  0383  30FF               	movlw	255
  3809  0384  07B8               	addwf	___flmul@temp,f
  3810  0385  1803               	skipnc
  3811  0386  0AB9               	incf	___flmul@temp+1,f
  3812  0387  30FF               	movlw	255
  3813  0388  07B9               	addwf	___flmul@temp+1,f
  3814  0389                     l2408:
  3815  0389  1FB6               	btfss	___flmul@prod+2,7
  3816  038A  2B8C               	goto	u3141
  3817  038B  2B8D               	goto	u3140
  3818  038C                     u3141:
  3819  038C  2B6C               	goto	l2398
  3820  038D                     u3140:
  3821  038D                     l2410:
  3822  038D  01B2               	clrf	___flmul@aexp
  3823  038E                     l2412:
  3824  038E  1FB1               	btfss	___flmul@grs+3,7
  3825  038F  2B91               	goto	u3151
  3826  0390  2B92               	goto	u3150
  3827  0391                     u3151:
  3828  0391  2BAE               	goto	l2420
  3829  0392                     u3150:
  3830  0392                     l2414:
  3831  0392  30FF               	movlw	255
  3832  0393  052E               	andwf	___flmul@grs,w
  3833  0394  00A8               	movwf	??___flmul
  3834  0395  30FF               	movlw	255
  3835  0396  052F               	andwf	___flmul@grs+1,w
  3836  0397  00A9               	movwf	??___flmul+1
  3837  0398  30FF               	movlw	255
  3838  0399  0530               	andwf	___flmul@grs+2,w
  3839  039A  00AA               	movwf	??___flmul+2
  3840  039B  307F               	movlw	127
  3841  039C  0531               	andwf	___flmul@grs+3,w
  3842  039D  00AB               	movwf	??___flmul+3
  3843  039E  082B               	movf	??___flmul+3,w
  3844  039F  042A               	iorwf	??___flmul+2,w
  3845  03A0  0429               	iorwf	??___flmul+1,w
  3846  03A1  0428               	iorwf	??___flmul,w
  3847  03A2  1903               	skipnz
  3848  03A3  2BA5               	goto	u3161
  3849  03A4  2BA6               	goto	u3160
  3850  03A5                     u3161:
  3851  03A5  2BA9               	goto	l647
  3852  03A6                     u3160:
  3853  03A6                     l2416:
  3854  03A6  01B2               	clrf	___flmul@aexp
  3855  03A7  0AB2               	incf	___flmul@aexp,f
  3856  03A8  2BAE               	goto	l2420
  3857  03A9                     l647:
  3858  03A9  1C34               	btfss	___flmul@prod,0
  3859  03AA  2BAC               	goto	u3171
  3860  03AB  2BAD               	goto	u3170
  3861  03AC                     u3171:
  3862  03AC  2BAE               	goto	l2420
  3863  03AD                     u3170:
  3864  03AD  2BA6               	goto	l2416
  3865  03AE                     l2420:
  3866  03AE  0832               	movf	___flmul@aexp,w
  3867  03AF  1903               	btfsc	3,2
  3868  03B0  2BB2               	goto	u3181
  3869  03B1  2BB3               	goto	u3180
  3870  03B2                     u3181:
  3871  03B2  2BE4               	goto	l2430
  3872  03B3                     u3180:
  3873  03B3                     l2422:
  3874  03B3  3001               	movlw	1
  3875  03B4  07B4               	addwf	___flmul@prod,f
  3876  03B5  3000               	movlw	0
  3877  03B6  1803               	skipnc
  3878  03B7  3001               	movlw	1
  3879  03B8  07B5               	addwf	___flmul@prod+1,f
  3880  03B9  3000               	movlw	0
  3881  03BA  1803               	skipnc
  3882  03BB  3001               	movlw	1
  3883  03BC  07B6               	addwf	___flmul@prod+2,f
  3884  03BD  3000               	movlw	0
  3885  03BE  1803               	skipnc
  3886  03BF  3001               	movlw	1
  3887  03C0  07B7               	addwf	___flmul@prod+3,f
  3888  03C1                     l2424:
  3889  03C1  1C37               	btfss	___flmul@prod+3,0
  3890  03C2  2BC4               	goto	u3191
  3891  03C3  2BC5               	goto	u3190
  3892  03C4                     u3191:
  3893  03C4  2BE4               	goto	l2430
  3894  03C5                     u3190:
  3895  03C5                     l2426:
  3896  03C5  0834               	movf	___flmul@prod,w
  3897  03C6  00A8               	movwf	??___flmul
  3898  03C7  0835               	movf	___flmul@prod+1,w
  3899  03C8  00A9               	movwf	??___flmul+1
  3900  03C9  0836               	movf	___flmul@prod+2,w
  3901  03CA  00AA               	movwf	??___flmul+2
  3902  03CB  0837               	movf	___flmul@prod+3,w
  3903  03CC  00AB               	movwf	??___flmul+3
  3904  03CD  3001               	movlw	1
  3905  03CE  00AC               	movwf	??___flmul+4
  3906  03CF                     u3205:
  3907  03CF  0D2B               	rlf	??___flmul+3,w
  3908  03D0  0CAB               	rrf	??___flmul+3,f
  3909  03D1  0CAA               	rrf	??___flmul+2,f
  3910  03D2  0CA9               	rrf	??___flmul+1,f
  3911  03D3  0CA8               	rrf	??___flmul,f
  3912  03D4                     u3200:
  3913  03D4  0BAC               	decfsz	??___flmul+4,f
  3914  03D5  2BCF               	goto	u3205
  3915  03D6  082B               	movf	??___flmul+3,w
  3916  03D7  00B7               	movwf	___flmul@prod+3
  3917  03D8  082A               	movf	??___flmul+2,w
  3918  03D9  00B6               	movwf	___flmul@prod+2
  3919  03DA  0829               	movf	??___flmul+1,w
  3920  03DB  00B5               	movwf	___flmul@prod+1
  3921  03DC  0828               	movf	??___flmul,w
  3922  03DD  00B4               	movwf	___flmul@prod
  3923  03DE                     l2428:
  3924  03DE  3001               	movlw	1
  3925  03DF  07B8               	addwf	___flmul@temp,f
  3926  03E0  1803               	skipnc
  3927  03E1  0AB9               	incf	___flmul@temp+1,f
  3928  03E2  3000               	movlw	0
  3929  03E3  07B9               	addwf	___flmul@temp+1,f
  3930  03E4                     l2430:
  3931  03E4  0839               	movf	___flmul@temp+1,w
  3932  03E5  3A80               	xorlw	128
  3933  03E6  00FF               	movwf	btemp+1
  3934  03E7  3080               	movlw	128
  3935  03E8  027F               	subwf	btemp+1,w
  3936  03E9  1D03               	skipz
  3937  03EA  2BED               	goto	u3215
  3938  03EB  30FF               	movlw	255
  3939  03EC  0238               	subwf	___flmul@temp,w
  3940  03ED                     u3215:
  3941  03ED  1C03               	skipc
  3942  03EE  2BF0               	goto	u3211
  3943  03EF  2BF1               	goto	u3210
  3944  03F0                     u3211:
  3945  03F0  2BFC               	goto	l2434
  3946  03F1                     u3210:
  3947  03F1                     l2432:
  3948  03F1  307F               	movlw	127
  3949  03F2  1283               	bcf	3,5	;RP0=0, select bank0
  3950  03F3  1303               	bcf	3,6	;RP1=0, select bank0
  3951  03F4  00B7               	movwf	___flmul@prod+3
  3952  03F5  3080               	movlw	128
  3953  03F6  00B6               	movwf	___flmul@prod+2
  3954  03F7  3000               	movlw	0
  3955  03F8  00B5               	movwf	___flmul@prod+1
  3956  03F9  3000               	movlw	0
  3957  03FA  00B4               	movwf	___flmul@prod
  3958  03FB  2C31               	goto	l653
  3959  03FC                     l2434:
  3960  03FC  1283               	bcf	3,5	;RP0=0, select bank0
  3961  03FD  1303               	bcf	3,6	;RP1=0, select bank0
  3962  03FE  0839               	movf	___flmul@temp+1,w
  3963  03FF  3A80               	xorlw	128
  3964  0400  00FF               	movwf	btemp+1
  3965  0401  3080               	movlw	128
  3966  0402  027F               	subwf	btemp+1,w
  3967  0403  1D03               	skipz
  3968  0404  2C07               	goto	u3225
  3969  0405  3001               	movlw	1
  3970  0406  0238               	subwf	___flmul@temp,w
  3971  0407                     u3225:
  3972  0407  1803               	skipnc
  3973  0408  2C0A               	goto	u3221
  3974  0409  2C0B               	goto	u3220
  3975  040A                     u3221:
  3976  040A  2C17               	goto	l2440
  3977  040B                     u3220:
  3978  040B                     l2436:
  3979  040B  3000               	movlw	0
  3980  040C  1283               	bcf	3,5	;RP0=0, select bank0
  3981  040D  1303               	bcf	3,6	;RP1=0, select bank0
  3982  040E  00B7               	movwf	___flmul@prod+3
  3983  040F  3000               	movlw	0
  3984  0410  00B6               	movwf	___flmul@prod+2
  3985  0411  3000               	movlw	0
  3986  0412  00B5               	movwf	___flmul@prod+1
  3987  0413  3000               	movlw	0
  3988  0414  00B4               	movwf	___flmul@prod
  3989  0415                     l2438:
  3990  0415  01AD               	clrf	___flmul@sign
  3991  0416  2C31               	goto	l653
  3992  0417                     l2440:
  3993  0417  1283               	bcf	3,5	;RP0=0, select bank0
  3994  0418  1303               	bcf	3,6	;RP1=0, select bank0
  3995  0419  0838               	movf	___flmul@temp,w
  3996  041A  00A8               	movwf	??___flmul
  3997  041B  0828               	movf	??___flmul,w
  3998  041C  00B3               	movwf	___flmul@bexp
  3999  041D  30FF               	movlw	255
  4000  041E  05B4               	andwf	___flmul@prod,f
  4001  041F  30FF               	movlw	255
  4002  0420  05B5               	andwf	___flmul@prod+1,f
  4003  0421  307F               	movlw	127
  4004  0422  05B6               	andwf	___flmul@prod+2,f
  4005  0423  3000               	movlw	0
  4006  0424  05B7               	andwf	___flmul@prod+3,f
  4007  0425                     l2442:
  4008  0425  1C33               	btfss	___flmul@bexp,0
  4009  0426  2C28               	goto	u3231
  4010  0427  2C29               	goto	u3230
  4011  0428                     u3231:
  4012  0428  2C2A               	goto	l2446
  4013  0429                     u3230:
  4014  0429                     l2444:
  4015  0429  17B6               	bsf	___flmul@prod+2,7
  4016  042A                     l2446:
  4017  042A  0833               	movf	___flmul@bexp,w
  4018  042B  00A8               	movwf	??___flmul
  4019  042C  1003               	clrc
  4020  042D  0C28               	rrf	??___flmul,w
  4021  042E  00A9               	movwf	??___flmul+1
  4022  042F  0829               	movf	??___flmul+1,w
  4023  0430  00B7               	movwf	___flmul@prod+3
  4024  0431                     l653:
  4025  0431  082D               	movf	___flmul@sign,w
  4026  0432  00A8               	movwf	??___flmul
  4027  0433  0828               	movf	??___flmul,w
  4028  0434  04B7               	iorwf	___flmul@prod+3,f
  4029  0435                     l2448:
  4030  0435  0837               	movf	___flmul@prod+3,w
  4031  0436  00A3               	movwf	?___flmul+3
  4032  0437  0836               	movf	___flmul@prod+2,w
  4033  0438  00A2               	movwf	?___flmul+2
  4034  0439  0835               	movf	___flmul@prod+1,w
  4035  043A  00A1               	movwf	?___flmul+1
  4036  043B  0834               	movf	___flmul@prod,w
  4037  043C  00A0               	movwf	?___flmul
  4038  043D                     l641:
  4039  043D  0008               	return
  4040  043E                     __end_of___flmul:
  4041                           
  4042                           	psect	text9
  4043  08ED                     __ptext9:	
  4044 ;; *************** function __Umul8_16 *****************
  4045 ;; Defined at:
  4046 ;;		line 4 in file "C:\Program Files\Microchip\xc8\v2.31\pic\sources\c90\common\Umul8_16.c"
  4047 ;; Parameters:    Size  Location     Type
  4048 ;;  multiplier      1    wreg     unsigned char 
  4049 ;;  multiplicand    1    0[COMMON] unsigned char 
  4050 ;; Auto vars:     Size  Location     Type
  4051 ;;  multiplier      1    8[COMMON] unsigned char 
  4052 ;;  word_mpld       2    6[COMMON] unsigned int 
  4053 ;;  product         2    4[COMMON] unsigned int 
  4054 ;; Return value:  Size  Location     Type
  4055 ;;                  2    0[COMMON] unsigned int 
  4056 ;; Registers used:
  4057 ;;		wreg, status,2, status,0
  4058 ;; Tracked objects:
  4059 ;;		On entry : 0/0
  4060 ;;		On exit  : 0/0
  4061 ;;		Unchanged: 0/0
  4062 ;; Data sizes:     COMMON   BANK0   BANK1   BANK3   BANK2
  4063 ;;      Params:         2       0       0       0       0
  4064 ;;      Locals:         5       0       0       0       0
  4065 ;;      Temps:          2       0       0       0       0
  4066 ;;      Totals:         9       0       0       0       0
  4067 ;;Total ram usage:        9 bytes
  4068 ;; Hardware stack levels used:    1
  4069 ;; This function calls:
  4070 ;;		Nothing
  4071 ;; This function is called by:
  4072 ;;		___flmul
  4073 ;; This function uses a non-reentrant model
  4074 ;;
  4075                           
  4076                           
  4077                           ;psect for function __Umul8_16
  4078  08ED                     __Umul8_16:
  4079                           
  4080                           ;incstack = 0
  4081                           ; Regs used in __Umul8_16: [wreg+status,2+status,0]
  4082                           ;__Umul8_16@multiplier stored from wreg
  4083  08ED  00F8               	movwf	__Umul8_16@multiplier
  4084  08EE                     l1796:
  4085  08EE  01F4               	clrf	__Umul8_16@product
  4086  08EF  01F5               	clrf	__Umul8_16@product+1
  4087  08F0                     l1798:
  4088  08F0  0870               	movf	__Umul8_16@multiplicand,w
  4089  08F1  00F2               	movwf	??__Umul8_16
  4090  08F2  01F3               	clrf	??__Umul8_16+1
  4091  08F3  0872               	movf	??__Umul8_16,w
  4092  08F4  00F6               	movwf	__Umul8_16@word_mpld
  4093  08F5  0873               	movf	??__Umul8_16+1,w
  4094  08F6  00F7               	movwf	__Umul8_16@word_mpld+1
  4095  08F7                     l1800:
  4096  08F7  1C78               	btfss	__Umul8_16@multiplier,0
  4097  08F8  28FA               	goto	u1801
  4098  08F9  28FB               	goto	u1800
  4099  08FA                     u1801:
  4100  08FA  2901               	goto	l660
  4101  08FB                     u1800:
  4102  08FB                     l1802:
  4103  08FB  0876               	movf	__Umul8_16@word_mpld,w
  4104  08FC  07F4               	addwf	__Umul8_16@product,f
  4105  08FD  1803               	skipnc
  4106  08FE  0AF5               	incf	__Umul8_16@product+1,f
  4107  08FF  0877               	movf	__Umul8_16@word_mpld+1,w
  4108  0900  07F5               	addwf	__Umul8_16@product+1,f
  4109  0901                     l660:
  4110  0901  3001               	movlw	1
  4111  0902                     u1815:
  4112  0902  1003               	clrc
  4113  0903  0DF6               	rlf	__Umul8_16@word_mpld,f
  4114  0904  0DF7               	rlf	__Umul8_16@word_mpld+1,f
  4115  0905  3EFF               	addlw	-1
  4116  0906  1D03               	skipz
  4117  0907  2902               	goto	u1815
  4118  0908  1003               	clrc
  4119  0909  0CF8               	rrf	__Umul8_16@multiplier,f
  4120  090A                     l1804:
  4121  090A  0878               	movf	__Umul8_16@multiplier,w
  4122  090B  1D03               	btfss	3,2
  4123  090C  290E               	goto	u1821
  4124  090D  290F               	goto	u1820
  4125  090E                     u1821:
  4126  090E  28F7               	goto	l1800
  4127  090F                     u1820:
  4128  090F                     l1806:
  4129  090F  0875               	movf	__Umul8_16@product+1,w
  4130  0910  00F1               	movwf	?__Umul8_16+1
  4131  0911  0874               	movf	__Umul8_16@product,w
  4132  0912  00F0               	movwf	?__Umul8_16
  4133  0913                     l662:
  4134  0913  0008               	return
  4135  0914                     __end_of__Umul8_16:
  4136                           
  4137                           	psect	text10
  4138  0B9B                     __ptext10:	
  4139 ;; *************** function ___fldiv *****************
  4140 ;; Defined at:
  4141 ;;		line 8 in file "C:\Program Files\Microchip\xc8\v2.31\pic\sources\c90\common\sprcdiv.c"
  4142 ;; Parameters:    Size  Location     Type
  4143 ;;  a               4   26[BANK0 ] unsigned int 
  4144 ;;  b               4   30[BANK0 ] unsigned int 
  4145 ;; Auto vars:     Size  Location     Type
  4146 ;;  grs             4   46[BANK0 ] unsigned long 
  4147 ;;  rem             4   39[BANK0 ] unsigned long 
  4148 ;;  new_exp         2   44[BANK0 ] int 
  4149 ;;  aexp            1   51[BANK0 ] unsigned char 
  4150 ;;  bexp            1   50[BANK0 ] unsigned char 
  4151 ;;  sign            1   43[BANK0 ] unsigned char 
  4152 ;; Return value:  Size  Location     Type
  4153 ;;                  4   26[BANK0 ] unsigned char 
  4154 ;; Registers used:
  4155 ;;		wreg, status,2, status,0, btemp+1
  4156 ;; Tracked objects:
  4157 ;;		On entry : 0/0
  4158 ;;		On exit  : 0/0
  4159 ;;		Unchanged: 0/0
  4160 ;; Data sizes:     COMMON   BANK0   BANK1   BANK3   BANK2
  4161 ;;      Params:         0       8       0       0       0
  4162 ;;      Locals:         0      13       0       0       0
  4163 ;;      Temps:          0       5       0       0       0
  4164 ;;      Totals:         0      26       0       0       0
  4165 ;;Total ram usage:       26 bytes
  4166 ;; Hardware stack levels used:    1
  4167 ;; This function calls:
  4168 ;;		Nothing
  4169 ;; This function is called by:
  4170 ;;		_main
  4171 ;; This function uses a non-reentrant model
  4172 ;;
  4173                           
  4174                           
  4175                           ;psect for function ___fldiv
  4176  0B9B                     ___fldiv:
  4177  0B9B                     l2170:	
  4178                           ;incstack = 0
  4179                           ; Regs used in ___fldiv: [wreg+status,2+status,0+btemp+1]
  4180                           
  4181  0B9B  1283               	bcf	3,5	;RP0=0, select bank0
  4182  0B9C  1303               	bcf	3,6	;RP1=0, select bank0
  4183  0B9D  0841               	movf	___fldiv@b+3,w
  4184  0B9E  3980               	andlw	128
  4185  0B9F  00C2               	movwf	??___fldiv
  4186  0BA0  0842               	movf	??___fldiv,w
  4187  0BA1  00CB               	movwf	___fldiv@sign
  4188  0BA2                     l2172:
  4189  0BA2  0841               	movf	___fldiv@b+3,w
  4190  0BA3  00C2               	movwf	??___fldiv
  4191  0BA4  0742               	addwf	??___fldiv,w
  4192  0BA5  00C3               	movwf	??___fldiv+1
  4193  0BA6  0843               	movf	??___fldiv+1,w
  4194  0BA7  00D2               	movwf	___fldiv@bexp
  4195  0BA8                     l2174:
  4196  0BA8  1FC0               	btfss	___fldiv@b+2,7
  4197  0BA9  2BAB               	goto	u2581
  4198  0BAA  2BAC               	goto	u2580
  4199  0BAB                     u2581:
  4200  0BAB  2BAD               	goto	l2178
  4201  0BAC                     u2580:
  4202  0BAC                     l2176:
  4203  0BAC  1452               	bsf	___fldiv@bexp,0
  4204  0BAD                     l2178:
  4205  0BAD  0852               	movf	___fldiv@bexp,w
  4206  0BAE  1903               	btfsc	3,2
  4207  0BAF  2BB1               	goto	u2591
  4208  0BB0  2BB2               	goto	u2590
  4209  0BB1                     u2591:
  4210  0BB1  2BC2               	goto	l2188
  4211  0BB2                     u2590:
  4212  0BB2                     l2180:
  4213  0BB2  0A52               	incf	___fldiv@bexp,w
  4214  0BB3  1D03               	btfss	3,2
  4215  0BB4  2BB6               	goto	u2601
  4216  0BB5  2BB7               	goto	u2600
  4217  0BB6                     u2601:
  4218  0BB6  2BBF               	goto	l2184
  4219  0BB7                     u2600:
  4220  0BB7                     l2182:
  4221  0BB7  3000               	movlw	0
  4222  0BB8  00C1               	movwf	___fldiv@b+3
  4223  0BB9  3000               	movlw	0
  4224  0BBA  00C0               	movwf	___fldiv@b+2
  4225  0BBB  3000               	movlw	0
  4226  0BBC  00BF               	movwf	___fldiv@b+1
  4227  0BBD  3000               	movlw	0
  4228  0BBE  00BE               	movwf	___fldiv@b
  4229  0BBF                     l2184:
  4230  0BBF  17C0               	bsf	___fldiv@b+2,7
  4231  0BC0                     l2186:
  4232  0BC0  01C1               	clrf	___fldiv@b+3
  4233  0BC1  2BCA               	goto	l2190
  4234  0BC2                     l2188:
  4235  0BC2  3000               	movlw	0
  4236  0BC3  00C1               	movwf	___fldiv@b+3
  4237  0BC4  3000               	movlw	0
  4238  0BC5  00C0               	movwf	___fldiv@b+2
  4239  0BC6  3000               	movlw	0
  4240  0BC7  00BF               	movwf	___fldiv@b+1
  4241  0BC8  3000               	movlw	0
  4242  0BC9  00BE               	movwf	___fldiv@b
  4243  0BCA                     l2190:
  4244  0BCA  083D               	movf	___fldiv@a+3,w
  4245  0BCB  3980               	andlw	128
  4246  0BCC  00C2               	movwf	??___fldiv
  4247  0BCD  0842               	movf	??___fldiv,w
  4248  0BCE  06CB               	xorwf	___fldiv@sign,f
  4249  0BCF                     l2192:
  4250  0BCF  083D               	movf	___fldiv@a+3,w
  4251  0BD0  00C2               	movwf	??___fldiv
  4252  0BD1  0742               	addwf	??___fldiv,w
  4253  0BD2  00C3               	movwf	??___fldiv+1
  4254  0BD3  0843               	movf	??___fldiv+1,w
  4255  0BD4  00D3               	movwf	___fldiv@aexp
  4256  0BD5                     l2194:
  4257  0BD5  1FBC               	btfss	___fldiv@a+2,7
  4258  0BD6  2BD8               	goto	u2611
  4259  0BD7  2BD9               	goto	u2610
  4260  0BD8                     u2611:
  4261  0BD8  2BDA               	goto	l2198
  4262  0BD9                     u2610:
  4263  0BD9                     l2196:
  4264  0BD9  1453               	bsf	___fldiv@aexp,0
  4265  0BDA                     l2198:
  4266  0BDA  0853               	movf	___fldiv@aexp,w
  4267  0BDB  1903               	btfsc	3,2
  4268  0BDC  2BDE               	goto	u2621
  4269  0BDD  2BDF               	goto	u2620
  4270  0BDE                     u2621:
  4271  0BDE  2BEF               	goto	l2208
  4272  0BDF                     u2620:
  4273  0BDF                     l2200:
  4274  0BDF  0A53               	incf	___fldiv@aexp,w
  4275  0BE0  1D03               	btfss	3,2
  4276  0BE1  2BE3               	goto	u2631
  4277  0BE2  2BE4               	goto	u2630
  4278  0BE3                     u2631:
  4279  0BE3  2BEC               	goto	l2204
  4280  0BE4                     u2630:
  4281  0BE4                     l2202:
  4282  0BE4  3000               	movlw	0
  4283  0BE5  00BD               	movwf	___fldiv@a+3
  4284  0BE6  3000               	movlw	0
  4285  0BE7  00BC               	movwf	___fldiv@a+2
  4286  0BE8  3000               	movlw	0
  4287  0BE9  00BB               	movwf	___fldiv@a+1
  4288  0BEA  3000               	movlw	0
  4289  0BEB  00BA               	movwf	___fldiv@a
  4290  0BEC                     l2204:
  4291  0BEC  17BC               	bsf	___fldiv@a+2,7
  4292  0BED                     l2206:
  4293  0BED  01BD               	clrf	___fldiv@a+3
  4294  0BEE  2BF7               	goto	l601
  4295  0BEF                     l2208:
  4296  0BEF  3000               	movlw	0
  4297  0BF0  00BD               	movwf	___fldiv@a+3
  4298  0BF1  3000               	movlw	0
  4299  0BF2  00BC               	movwf	___fldiv@a+2
  4300  0BF3  3000               	movlw	0
  4301  0BF4  00BB               	movwf	___fldiv@a+1
  4302  0BF5  3000               	movlw	0
  4303  0BF6  00BA               	movwf	___fldiv@a
  4304  0BF7                     l601:
  4305  0BF7  083D               	movf	___fldiv@a+3,w
  4306  0BF8  043C               	iorwf	___fldiv@a+2,w
  4307  0BF9  043B               	iorwf	___fldiv@a+1,w
  4308  0BFA  043A               	iorwf	___fldiv@a,w
  4309  0BFB  1D03               	skipz
  4310  0BFC  2BFE               	goto	u2641
  4311  0BFD  2BFF               	goto	u2640
  4312  0BFE                     u2641:
  4313  0BFE  2C18               	goto	l2218
  4314  0BFF                     u2640:
  4315  0BFF                     l2210:
  4316  0BFF  3000               	movlw	0
  4317  0C00  00C1               	movwf	___fldiv@b+3
  4318  0C01  3000               	movlw	0
  4319  0C02  00C0               	movwf	___fldiv@b+2
  4320  0C03  3000               	movlw	0
  4321  0C04  00BF               	movwf	___fldiv@b+1
  4322  0C05  3000               	movlw	0
  4323  0C06  00BE               	movwf	___fldiv@b
  4324  0C07  3080               	movlw	128
  4325  0C08  04C0               	iorwf	___fldiv@b+2,f
  4326  0C09  307F               	movlw	127
  4327  0C0A  04C1               	iorwf	___fldiv@b+3,f
  4328  0C0B                     l2212:
  4329  0C0B  084B               	movf	___fldiv@sign,w
  4330  0C0C  00C2               	movwf	??___fldiv
  4331  0C0D  0842               	movf	??___fldiv,w
  4332  0C0E  04C1               	iorwf	___fldiv@b+3,f
  4333  0C0F                     l2214:
  4334  0C0F  0841               	movf	___fldiv@b+3,w
  4335  0C10  00BD               	movwf	?___fldiv+3
  4336  0C11  0840               	movf	___fldiv@b+2,w
  4337  0C12  00BC               	movwf	?___fldiv+2
  4338  0C13  083F               	movf	___fldiv@b+1,w
  4339  0C14  00BB               	movwf	?___fldiv+1
  4340  0C15  083E               	movf	___fldiv@b,w
  4341  0C16  00BA               	movwf	?___fldiv
  4342  0C17  2D77               	goto	l603
  4343  0C18                     l2218:
  4344  0C18  0852               	movf	___fldiv@bexp,w
  4345  0C19  1D03               	btfss	3,2
  4346  0C1A  2C1C               	goto	u2651
  4347  0C1B  2C1D               	goto	u2650
  4348  0C1C                     u2651:
  4349  0C1C  2C26               	goto	l2224
  4350  0C1D                     u2650:
  4351  0C1D                     l2220:
  4352  0C1D  3000               	movlw	0
  4353  0C1E  00BD               	movwf	?___fldiv+3
  4354  0C1F  3000               	movlw	0
  4355  0C20  00BC               	movwf	?___fldiv+2
  4356  0C21  3000               	movlw	0
  4357  0C22  00BB               	movwf	?___fldiv+1
  4358  0C23  3000               	movlw	0
  4359  0C24  00BA               	movwf	?___fldiv
  4360  0C25  2D77               	goto	l603
  4361  0C26                     l2224:
  4362  0C26  0852               	movf	___fldiv@bexp,w
  4363  0C27  00C2               	movwf	??___fldiv
  4364  0C28  01C3               	clrf	??___fldiv+1
  4365  0C29  0843               	movf	??___fldiv+1,w
  4366  0C2A  00C5               	movwf	??___fldiv+3
  4367  0C2B  0853               	movf	___fldiv@aexp,w
  4368  0C2C  0242               	subwf	??___fldiv,w
  4369  0C2D  00C4               	movwf	??___fldiv+2
  4370  0C2E  1C03               	skipc
  4371  0C2F  03C5               	decf	??___fldiv+3,f
  4372  0C30  0844               	movf	??___fldiv+2,w
  4373  0C31  3E7F               	addlw	127
  4374  0C32  00CC               	movwf	___fldiv@new_exp
  4375  0C33  0845               	movf	??___fldiv+3,w
  4376  0C34  1803               	skipnc
  4377  0C35  3E01               	addlw	1
  4378  0C36  3E00               	addlw	0
  4379  0C37  00CD               	movwf	___fldiv@new_exp+1
  4380  0C38                     l2226:
  4381  0C38  0841               	movf	___fldiv@b+3,w
  4382  0C39  00CA               	movwf	___fldiv@rem+3
  4383  0C3A  0840               	movf	___fldiv@b+2,w
  4384  0C3B  00C9               	movwf	___fldiv@rem+2
  4385  0C3C  083F               	movf	___fldiv@b+1,w
  4386  0C3D  00C8               	movwf	___fldiv@rem+1
  4387  0C3E  083E               	movf	___fldiv@b,w
  4388  0C3F  00C7               	movwf	___fldiv@rem
  4389  0C40                     l2228:
  4390  0C40  3000               	movlw	0
  4391  0C41  00C1               	movwf	___fldiv@b+3
  4392  0C42  3000               	movlw	0
  4393  0C43  00C0               	movwf	___fldiv@b+2
  4394  0C44  3000               	movlw	0
  4395  0C45  00BF               	movwf	___fldiv@b+1
  4396  0C46  3000               	movlw	0
  4397  0C47  00BE               	movwf	___fldiv@b
  4398  0C48                     l2230:
  4399  0C48  3000               	movlw	0
  4400  0C49  00D1               	movwf	___fldiv@grs+3
  4401  0C4A  3000               	movlw	0
  4402  0C4B  00D0               	movwf	___fldiv@grs+2
  4403  0C4C  3000               	movlw	0
  4404  0C4D  00CF               	movwf	___fldiv@grs+1
  4405  0C4E  3000               	movlw	0
  4406  0C4F  00CE               	movwf	___fldiv@grs
  4407  0C50                     l2232:
  4408  0C50  01D3               	clrf	___fldiv@aexp
  4409  0C51  2C9C               	goto	l2252
  4410  0C52                     l2234:
  4411  0C52  0853               	movf	___fldiv@aexp,w
  4412  0C53  1903               	btfsc	3,2
  4413  0C54  2C56               	goto	u2661
  4414  0C55  2C57               	goto	u2660
  4415  0C56                     u2661:
  4416  0C56  2C77               	goto	l2244
  4417  0C57                     u2660:
  4418  0C57                     l2236:
  4419  0C57  3001               	movlw	1
  4420  0C58  00C2               	movwf	??___fldiv
  4421  0C59                     u2675:
  4422  0C59  1003               	clrc
  4423  0C5A  0DC7               	rlf	___fldiv@rem,f
  4424  0C5B  0DC8               	rlf	___fldiv@rem+1,f
  4425  0C5C  0DC9               	rlf	___fldiv@rem+2,f
  4426  0C5D  0DCA               	rlf	___fldiv@rem+3,f
  4427  0C5E  0BC2               	decfsz	??___fldiv,f
  4428  0C5F  2C59               	goto	u2675
  4429  0C60  3001               	movlw	1
  4430  0C61  00C2               	movwf	??___fldiv
  4431  0C62                     u2685:
  4432  0C62  1003               	clrc
  4433  0C63  0DBE               	rlf	___fldiv@b,f
  4434  0C64  0DBF               	rlf	___fldiv@b+1,f
  4435  0C65  0DC0               	rlf	___fldiv@b+2,f
  4436  0C66  0DC1               	rlf	___fldiv@b+3,f
  4437  0C67  0BC2               	decfsz	??___fldiv,f
  4438  0C68  2C62               	goto	u2685
  4439  0C69                     l2238:
  4440  0C69  1FD1               	btfss	___fldiv@grs+3,7
  4441  0C6A  2C6C               	goto	u2691
  4442  0C6B  2C6D               	goto	u2690
  4443  0C6C                     u2691:
  4444  0C6C  2C6E               	goto	l2242
  4445  0C6D                     u2690:
  4446  0C6D                     l2240:
  4447  0C6D  143E               	bsf	___fldiv@b,0
  4448  0C6E                     l2242:
  4449  0C6E  3001               	movlw	1
  4450  0C6F  00C2               	movwf	??___fldiv
  4451  0C70                     u2705:
  4452  0C70  1003               	clrc
  4453  0C71  0DCE               	rlf	___fldiv@grs,f
  4454  0C72  0DCF               	rlf	___fldiv@grs+1,f
  4455  0C73  0DD0               	rlf	___fldiv@grs+2,f
  4456  0C74  0DD1               	rlf	___fldiv@grs+3,f
  4457  0C75  0BC2               	decfsz	??___fldiv,f
  4458  0C76  2C70               	goto	u2705
  4459  0C77                     l2244:
  4460  0C77  083D               	movf	___fldiv@a+3,w
  4461  0C78  024A               	subwf	___fldiv@rem+3,w
  4462  0C79  1D03               	skipz
  4463  0C7A  2C85               	goto	u2715
  4464  0C7B  083C               	movf	___fldiv@a+2,w
  4465  0C7C  0249               	subwf	___fldiv@rem+2,w
  4466  0C7D  1D03               	skipz
  4467  0C7E  2C85               	goto	u2715
  4468  0C7F  083B               	movf	___fldiv@a+1,w
  4469  0C80  0248               	subwf	___fldiv@rem+1,w
  4470  0C81  1D03               	skipz
  4471  0C82  2C85               	goto	u2715
  4472  0C83  083A               	movf	___fldiv@a,w
  4473  0C84  0247               	subwf	___fldiv@rem,w
  4474  0C85                     u2715:
  4475  0C85  1C03               	skipc
  4476  0C86  2C88               	goto	u2711
  4477  0C87  2C89               	goto	u2710
  4478  0C88                     u2711:
  4479  0C88  2C98               	goto	l2250
  4480  0C89                     u2710:
  4481  0C89                     l2246:
  4482  0C89  1751               	bsf	___fldiv@grs+3,6
  4483  0C8A                     l2248:
  4484  0C8A  083A               	movf	___fldiv@a,w
  4485  0C8B  02C7               	subwf	___fldiv@rem,f
  4486  0C8C  083B               	movf	___fldiv@a+1,w
  4487  0C8D  1C03               	skipc
  4488  0C8E  0F3B               	incfsz	___fldiv@a+1,w
  4489  0C8F  02C8               	subwf	___fldiv@rem+1,f
  4490  0C90  083C               	movf	___fldiv@a+2,w
  4491  0C91  1C03               	skipc
  4492  0C92  0F3C               	incfsz	___fldiv@a+2,w
  4493  0C93  02C9               	subwf	___fldiv@rem+2,f
  4494  0C94  083D               	movf	___fldiv@a+3,w
  4495  0C95  1C03               	skipc
  4496  0C96  0F3D               	incfsz	___fldiv@a+3,w
  4497  0C97  02CA               	subwf	___fldiv@rem+3,f
  4498  0C98                     l2250:
  4499  0C98  3001               	movlw	1
  4500  0C99  00C2               	movwf	??___fldiv
  4501  0C9A  0842               	movf	??___fldiv,w
  4502  0C9B  07D3               	addwf	___fldiv@aexp,f
  4503  0C9C                     l2252:
  4504  0C9C  301A               	movlw	26
  4505  0C9D  0253               	subwf	___fldiv@aexp,w
  4506  0C9E  1C03               	skipc
  4507  0C9F  2CA1               	goto	u2721
  4508  0CA0  2CA2               	goto	u2720
  4509  0CA1                     u2721:
  4510  0CA1  2C52               	goto	l2234
  4511  0CA2                     u2720:
  4512  0CA2                     l2254:
  4513  0CA2  084A               	movf	___fldiv@rem+3,w
  4514  0CA3  0449               	iorwf	___fldiv@rem+2,w
  4515  0CA4  0448               	iorwf	___fldiv@rem+1,w
  4516  0CA5  0447               	iorwf	___fldiv@rem,w
  4517  0CA6  1903               	skipnz
  4518  0CA7  2CA9               	goto	u2731
  4519  0CA8  2CAA               	goto	u2730
  4520  0CA9                     u2731:
  4521  0CA9  2CC9               	goto	l2268
  4522  0CAA                     u2730:
  4523  0CAA                     l2256:
  4524  0CAA  144E               	bsf	___fldiv@grs,0
  4525  0CAB  2CC9               	goto	l2268
  4526  0CAC                     l2258:
  4527  0CAC  3001               	movlw	1
  4528  0CAD  00C2               	movwf	??___fldiv
  4529  0CAE                     u2745:
  4530  0CAE  1003               	clrc
  4531  0CAF  0DBE               	rlf	___fldiv@b,f
  4532  0CB0  0DBF               	rlf	___fldiv@b+1,f
  4533  0CB1  0DC0               	rlf	___fldiv@b+2,f
  4534  0CB2  0DC1               	rlf	___fldiv@b+3,f
  4535  0CB3  0BC2               	decfsz	??___fldiv,f
  4536  0CB4  2CAE               	goto	u2745
  4537  0CB5                     l2260:
  4538  0CB5  1FD1               	btfss	___fldiv@grs+3,7
  4539  0CB6  2CB8               	goto	u2751
  4540  0CB7  2CB9               	goto	u2750
  4541  0CB8                     u2751:
  4542  0CB8  2CBA               	goto	l2264
  4543  0CB9                     u2750:
  4544  0CB9                     l2262:
  4545  0CB9  143E               	bsf	___fldiv@b,0
  4546  0CBA                     l2264:
  4547  0CBA  3001               	movlw	1
  4548  0CBB  00C2               	movwf	??___fldiv
  4549  0CBC                     u2765:
  4550  0CBC  1003               	clrc
  4551  0CBD  0DCE               	rlf	___fldiv@grs,f
  4552  0CBE  0DCF               	rlf	___fldiv@grs+1,f
  4553  0CBF  0DD0               	rlf	___fldiv@grs+2,f
  4554  0CC0  0DD1               	rlf	___fldiv@grs+3,f
  4555  0CC1  0BC2               	decfsz	??___fldiv,f
  4556  0CC2  2CBC               	goto	u2765
  4557  0CC3                     l2266:
  4558  0CC3  30FF               	movlw	255
  4559  0CC4  07CC               	addwf	___fldiv@new_exp,f
  4560  0CC5  1803               	skipnc
  4561  0CC6  0ACD               	incf	___fldiv@new_exp+1,f
  4562  0CC7  30FF               	movlw	255
  4563  0CC8  07CD               	addwf	___fldiv@new_exp+1,f
  4564  0CC9                     l2268:
  4565  0CC9  1FC0               	btfss	___fldiv@b+2,7
  4566  0CCA  2CCC               	goto	u2771
  4567  0CCB  2CCD               	goto	u2770
  4568  0CCC                     u2771:
  4569  0CCC  2CAC               	goto	l2258
  4570  0CCD                     u2770:
  4571  0CCD                     l2270:
  4572  0CCD  01D3               	clrf	___fldiv@aexp
  4573  0CCE                     l2272:
  4574  0CCE  1FD1               	btfss	___fldiv@grs+3,7
  4575  0CCF  2CD1               	goto	u2781
  4576  0CD0  2CD2               	goto	u2780
  4577  0CD1                     u2781:
  4578  0CD1  2CEE               	goto	l2280
  4579  0CD2                     u2780:
  4580  0CD2                     l2274:
  4581  0CD2  30FF               	movlw	255
  4582  0CD3  054E               	andwf	___fldiv@grs,w
  4583  0CD4  00C2               	movwf	??___fldiv
  4584  0CD5  30FF               	movlw	255
  4585  0CD6  054F               	andwf	___fldiv@grs+1,w
  4586  0CD7  00C3               	movwf	??___fldiv+1
  4587  0CD8  30FF               	movlw	255
  4588  0CD9  0550               	andwf	___fldiv@grs+2,w
  4589  0CDA  00C4               	movwf	??___fldiv+2
  4590  0CDB  307F               	movlw	127
  4591  0CDC  0551               	andwf	___fldiv@grs+3,w
  4592  0CDD  00C5               	movwf	??___fldiv+3
  4593  0CDE  0845               	movf	??___fldiv+3,w
  4594  0CDF  0444               	iorwf	??___fldiv+2,w
  4595  0CE0  0443               	iorwf	??___fldiv+1,w
  4596  0CE1  0442               	iorwf	??___fldiv,w
  4597  0CE2  1903               	skipnz
  4598  0CE3  2CE5               	goto	u2791
  4599  0CE4  2CE6               	goto	u2790
  4600  0CE5                     u2791:
  4601  0CE5  2CE9               	goto	l617
  4602  0CE6                     u2790:
  4603  0CE6                     l2276:
  4604  0CE6  01D3               	clrf	___fldiv@aexp
  4605  0CE7  0AD3               	incf	___fldiv@aexp,f
  4606  0CE8  2CEE               	goto	l2280
  4607  0CE9                     l617:
  4608  0CE9  1C3E               	btfss	___fldiv@b,0
  4609  0CEA  2CEC               	goto	u2801
  4610  0CEB  2CED               	goto	u2800
  4611  0CEC                     u2801:
  4612  0CEC  2CEE               	goto	l2280
  4613  0CED                     u2800:
  4614  0CED  2CE6               	goto	l2276
  4615  0CEE                     l2280:
  4616  0CEE  0853               	movf	___fldiv@aexp,w
  4617  0CEF  1903               	btfsc	3,2
  4618  0CF0  2CF2               	goto	u2811
  4619  0CF1  2CF3               	goto	u2810
  4620  0CF2                     u2811:
  4621  0CF2  2D24               	goto	l2290
  4622  0CF3                     u2810:
  4623  0CF3                     l2282:
  4624  0CF3  3001               	movlw	1
  4625  0CF4  07BE               	addwf	___fldiv@b,f
  4626  0CF5  3000               	movlw	0
  4627  0CF6  1803               	skipnc
  4628  0CF7  3001               	movlw	1
  4629  0CF8  07BF               	addwf	___fldiv@b+1,f
  4630  0CF9  3000               	movlw	0
  4631  0CFA  1803               	skipnc
  4632  0CFB  3001               	movlw	1
  4633  0CFC  07C0               	addwf	___fldiv@b+2,f
  4634  0CFD  3000               	movlw	0
  4635  0CFE  1803               	skipnc
  4636  0CFF  3001               	movlw	1
  4637  0D00  07C1               	addwf	___fldiv@b+3,f
  4638  0D01                     l2284:
  4639  0D01  1C41               	btfss	___fldiv@b+3,0
  4640  0D02  2D04               	goto	u2821
  4641  0D03  2D05               	goto	u2820
  4642  0D04                     u2821:
  4643  0D04  2D24               	goto	l2290
  4644  0D05                     u2820:
  4645  0D05                     l2286:
  4646  0D05  083E               	movf	___fldiv@b,w
  4647  0D06  00C2               	movwf	??___fldiv
  4648  0D07  083F               	movf	___fldiv@b+1,w
  4649  0D08  00C3               	movwf	??___fldiv+1
  4650  0D09  0840               	movf	___fldiv@b+2,w
  4651  0D0A  00C4               	movwf	??___fldiv+2
  4652  0D0B  0841               	movf	___fldiv@b+3,w
  4653  0D0C  00C5               	movwf	??___fldiv+3
  4654  0D0D  3001               	movlw	1
  4655  0D0E  00C6               	movwf	??___fldiv+4
  4656  0D0F                     u2835:
  4657  0D0F  0D45               	rlf	??___fldiv+3,w
  4658  0D10  0CC5               	rrf	??___fldiv+3,f
  4659  0D11  0CC4               	rrf	??___fldiv+2,f
  4660  0D12  0CC3               	rrf	??___fldiv+1,f
  4661  0D13  0CC2               	rrf	??___fldiv,f
  4662  0D14                     u2830:
  4663  0D14  0BC6               	decfsz	??___fldiv+4,f
  4664  0D15  2D0F               	goto	u2835
  4665  0D16  0845               	movf	??___fldiv+3,w
  4666  0D17  00C1               	movwf	___fldiv@b+3
  4667  0D18  0844               	movf	??___fldiv+2,w
  4668  0D19  00C0               	movwf	___fldiv@b+2
  4669  0D1A  0843               	movf	??___fldiv+1,w
  4670  0D1B  00BF               	movwf	___fldiv@b+1
  4671  0D1C  0842               	movf	??___fldiv,w
  4672  0D1D  00BE               	movwf	___fldiv@b
  4673  0D1E                     l2288:
  4674  0D1E  3001               	movlw	1
  4675  0D1F  07CC               	addwf	___fldiv@new_exp,f
  4676  0D20  1803               	skipnc
  4677  0D21  0ACD               	incf	___fldiv@new_exp+1,f
  4678  0D22  3000               	movlw	0
  4679  0D23  07CD               	addwf	___fldiv@new_exp+1,f
  4680  0D24                     l2290:
  4681  0D24  084D               	movf	___fldiv@new_exp+1,w
  4682  0D25  3A80               	xorlw	128
  4683  0D26  00FF               	movwf	btemp+1
  4684  0D27  3080               	movlw	128
  4685  0D28  027F               	subwf	btemp+1,w
  4686  0D29  1D03               	skipz
  4687  0D2A  2D2D               	goto	u2845
  4688  0D2B  30FF               	movlw	255
  4689  0D2C  024C               	subwf	___fldiv@new_exp,w
  4690  0D2D                     u2845:
  4691  0D2D  1C03               	skipc
  4692  0D2E  2D30               	goto	u2841
  4693  0D2F  2D31               	goto	u2840
  4694  0D30                     u2841:
  4695  0D30  2D3F               	goto	l2294
  4696  0D31                     u2840:
  4697  0D31                     l2292:
  4698  0D31  30FF               	movlw	255
  4699  0D32  1283               	bcf	3,5	;RP0=0, select bank0
  4700  0D33  1303               	bcf	3,6	;RP1=0, select bank0
  4701  0D34  00CC               	movwf	___fldiv@new_exp
  4702  0D35  3000               	movlw	0
  4703  0D36  00CD               	movwf	___fldiv@new_exp+1
  4704  0D37  3000               	movlw	0
  4705  0D38  00C1               	movwf	___fldiv@b+3
  4706  0D39  3000               	movlw	0
  4707  0D3A  00C0               	movwf	___fldiv@b+2
  4708  0D3B  3000               	movlw	0
  4709  0D3C  00BF               	movwf	___fldiv@b+1
  4710  0D3D  3000               	movlw	0
  4711  0D3E  00BE               	movwf	___fldiv@b
  4712  0D3F                     l2294:
  4713  0D3F  1283               	bcf	3,5	;RP0=0, select bank0
  4714  0D40  1303               	bcf	3,6	;RP1=0, select bank0
  4715  0D41  084D               	movf	___fldiv@new_exp+1,w
  4716  0D42  3A80               	xorlw	128
  4717  0D43  00FF               	movwf	btemp+1
  4718  0D44  3080               	movlw	128
  4719  0D45  027F               	subwf	btemp+1,w
  4720  0D46  1D03               	skipz
  4721  0D47  2D4A               	goto	u2855
  4722  0D48  3001               	movlw	1
  4723  0D49  024C               	subwf	___fldiv@new_exp,w
  4724  0D4A                     u2855:
  4725  0D4A  1803               	skipnc
  4726  0D4B  2D4D               	goto	u2851
  4727  0D4C  2D4E               	goto	u2850
  4728  0D4D                     u2851:
  4729  0D4D  2D5B               	goto	l623
  4730  0D4E                     u2850:
  4731  0D4E                     l2296:
  4732  0D4E  1283               	bcf	3,5	;RP0=0, select bank0
  4733  0D4F  1303               	bcf	3,6	;RP1=0, select bank0
  4734  0D50  01CC               	clrf	___fldiv@new_exp
  4735  0D51  01CD               	clrf	___fldiv@new_exp+1
  4736  0D52                     l2298:
  4737  0D52  3000               	movlw	0
  4738  0D53  00C1               	movwf	___fldiv@b+3
  4739  0D54  3000               	movlw	0
  4740  0D55  00C0               	movwf	___fldiv@b+2
  4741  0D56  3000               	movlw	0
  4742  0D57  00BF               	movwf	___fldiv@b+1
  4743  0D58  3000               	movlw	0
  4744  0D59  00BE               	movwf	___fldiv@b
  4745  0D5A                     l2300:
  4746  0D5A  01CB               	clrf	___fldiv@sign
  4747  0D5B                     l623:
  4748  0D5B  1283               	bcf	3,5	;RP0=0, select bank0
  4749  0D5C  1303               	bcf	3,6	;RP1=0, select bank0
  4750  0D5D  084C               	movf	___fldiv@new_exp,w
  4751  0D5E  00C2               	movwf	??___fldiv
  4752  0D5F  0842               	movf	??___fldiv,w
  4753  0D60  00D2               	movwf	___fldiv@bexp
  4754  0D61                     l2302:
  4755  0D61  1C52               	btfss	___fldiv@bexp,0
  4756  0D62  2D64               	goto	u2861
  4757  0D63  2D65               	goto	u2860
  4758  0D64                     u2861:
  4759  0D64  2D67               	goto	l2306
  4760  0D65                     u2860:
  4761  0D65                     l2304:
  4762  0D65  17C0               	bsf	___fldiv@b+2,7
  4763  0D66  2D6B               	goto	l625
  4764  0D67                     l2306:
  4765  0D67  307F               	movlw	127
  4766  0D68  00C2               	movwf	??___fldiv
  4767  0D69  0842               	movf	??___fldiv,w
  4768  0D6A  05C0               	andwf	___fldiv@b+2,f
  4769  0D6B                     l625:
  4770  0D6B  0852               	movf	___fldiv@bexp,w
  4771  0D6C  00C2               	movwf	??___fldiv
  4772  0D6D  1003               	clrc
  4773  0D6E  0C42               	rrf	??___fldiv,w
  4774  0D6F  00C3               	movwf	??___fldiv+1
  4775  0D70  0843               	movf	??___fldiv+1,w
  4776  0D71  00C1               	movwf	___fldiv@b+3
  4777  0D72  084B               	movf	___fldiv@sign,w
  4778  0D73  00C2               	movwf	??___fldiv
  4779  0D74  0842               	movf	??___fldiv,w
  4780  0D75  04C1               	iorwf	___fldiv@b+3,f
  4781  0D76  2C0F               	goto	l2214
  4782  0D77                     l603:
  4783  0D77  0008               	return
  4784  0D78                     __end_of___fldiv:
  4785                           
  4786                           	psect	text11
  4787  0D78                     __ptext11:	
  4788 ;; *************** function ___fladd *****************
  4789 ;; Defined at:
  4790 ;;		line 10 in file "C:\Program Files\Microchip\xc8\v2.31\pic\sources\c90\common\sprcadd.c"
  4791 ;; Parameters:    Size  Location     Type
  4792 ;;  b               4   52[BANK0 ] unsigned char 
  4793 ;;  a               4   56[BANK0 ] unsigned char 
  4794 ;; Auto vars:     Size  Location     Type
  4795 ;;  grs             1   71[BANK0 ] unsigned char 
  4796 ;;  bexp            1   70[BANK0 ] unsigned char 
  4797 ;;  aexp            1   69[BANK0 ] unsigned char 
  4798 ;;  signs           1   68[BANK0 ] unsigned char 
  4799 ;; Return value:  Size  Location     Type
  4800 ;;                  4   52[BANK0 ] unsigned char 
  4801 ;; Registers used:
  4802 ;;		wreg, status,2, status,0, btemp+1
  4803 ;; Tracked objects:
  4804 ;;		On entry : 0/0
  4805 ;;		On exit  : 0/0
  4806 ;;		Unchanged: 0/0
  4807 ;; Data sizes:     COMMON   BANK0   BANK1   BANK3   BANK2
  4808 ;;      Params:         0       8       0       0       0
  4809 ;;      Locals:         0       4       0       0       0
  4810 ;;      Temps:          0       8       0       0       0
  4811 ;;      Totals:         0      20       0       0       0
  4812 ;;Total ram usage:       20 bytes
  4813 ;; Hardware stack levels used:    1
  4814 ;; This function calls:
  4815 ;;		Nothing
  4816 ;; This function is called by:
  4817 ;;		_main
  4818 ;; This function uses a non-reentrant model
  4819 ;;
  4820                           
  4821                           
  4822                           ;psect for function ___fladd
  4823  0D78                     ___fladd:
  4824  0D78                     l1976:	
  4825                           ;incstack = 0
  4826                           ; Regs used in ___fladd: [wreg+status,2+status,0+btemp+1]
  4827                           
  4828  0D78  1283               	bcf	3,5	;RP0=0, select bank0
  4829  0D79  1303               	bcf	3,6	;RP1=0, select bank0
  4830  0D7A  0857               	movf	___fladd@b+3,w
  4831  0D7B  3980               	andlw	128
  4832  0D7C  00DC               	movwf	??___fladd
  4833  0D7D  085C               	movf	??___fladd,w
  4834  0D7E  00E4               	movwf	___fladd@signs
  4835  0D7F                     l1978:
  4836  0D7F  0857               	movf	___fladd@b+3,w
  4837  0D80  00DC               	movwf	??___fladd
  4838  0D81  075C               	addwf	??___fladd,w
  4839  0D82  00DD               	movwf	??___fladd+1
  4840  0D83  085D               	movf	??___fladd+1,w
  4841  0D84  00E6               	movwf	___fladd@bexp
  4842  0D85                     l1980:
  4843  0D85  1FD6               	btfss	___fladd@b+2,7
  4844  0D86  2D88               	goto	u2121
  4845  0D87  2D89               	goto	u2120
  4846  0D88                     u2121:
  4847  0D88  2D8A               	goto	l1984
  4848  0D89                     u2120:
  4849  0D89                     l1982:
  4850  0D89  1466               	bsf	___fladd@bexp,0
  4851  0D8A                     l1984:
  4852  0D8A  0866               	movf	___fladd@bexp,w
  4853  0D8B  1903               	btfsc	3,2
  4854  0D8C  2D8E               	goto	u2131
  4855  0D8D  2D8F               	goto	u2130
  4856  0D8E                     u2131:
  4857  0D8E  2D9F               	goto	l1994
  4858  0D8F                     u2130:
  4859  0D8F                     l1986:
  4860  0D8F  0A66               	incf	___fladd@bexp,w
  4861  0D90  1D03               	btfss	3,2
  4862  0D91  2D93               	goto	u2141
  4863  0D92  2D94               	goto	u2140
  4864  0D93                     u2141:
  4865  0D93  2D9C               	goto	l1990
  4866  0D94                     u2140:
  4867  0D94                     l1988:
  4868  0D94  3000               	movlw	0
  4869  0D95  00D7               	movwf	___fladd@b+3
  4870  0D96  3000               	movlw	0
  4871  0D97  00D6               	movwf	___fladd@b+2
  4872  0D98  3000               	movlw	0
  4873  0D99  00D5               	movwf	___fladd@b+1
  4874  0D9A  3000               	movlw	0
  4875  0D9B  00D4               	movwf	___fladd@b
  4876  0D9C                     l1990:
  4877  0D9C  17D6               	bsf	___fladd@b+2,7
  4878  0D9D                     l1992:
  4879  0D9D  01D7               	clrf	___fladd@b+3
  4880  0D9E  2DA7               	goto	l1996
  4881  0D9F                     l1994:
  4882  0D9F  3000               	movlw	0
  4883  0DA0  00D7               	movwf	___fladd@b+3
  4884  0DA1  3000               	movlw	0
  4885  0DA2  00D6               	movwf	___fladd@b+2
  4886  0DA3  3000               	movlw	0
  4887  0DA4  00D5               	movwf	___fladd@b+1
  4888  0DA5  3000               	movlw	0
  4889  0DA6  00D4               	movwf	___fladd@b
  4890  0DA7                     l1996:
  4891  0DA7  085B               	movf	___fladd@a+3,w
  4892  0DA8  3980               	andlw	128
  4893  0DA9  00DC               	movwf	??___fladd
  4894  0DAA  085C               	movf	??___fladd,w
  4895  0DAB  00E5               	movwf	___fladd@aexp
  4896  0DAC                     l1998:
  4897  0DAC  0865               	movf	___fladd@aexp,w
  4898  0DAD  0664               	xorwf	___fladd@signs,w
  4899  0DAE  1903               	skipnz
  4900  0DAF  2DB1               	goto	u2151
  4901  0DB0  2DB2               	goto	u2150
  4902  0DB1                     u2151:
  4903  0DB1  2DB3               	goto	l2002
  4904  0DB2                     u2150:
  4905  0DB2                     l2000:
  4906  0DB2  1764               	bsf	___fladd@signs,6
  4907  0DB3                     l2002:
  4908  0DB3  085B               	movf	___fladd@a+3,w
  4909  0DB4  00DC               	movwf	??___fladd
  4910  0DB5  075C               	addwf	??___fladd,w
  4911  0DB6  00DD               	movwf	??___fladd+1
  4912  0DB7  085D               	movf	??___fladd+1,w
  4913  0DB8  00E5               	movwf	___fladd@aexp
  4914  0DB9                     l2004:
  4915  0DB9  1FDA               	btfss	___fladd@a+2,7
  4916  0DBA  2DBC               	goto	u2161
  4917  0DBB  2DBD               	goto	u2160
  4918  0DBC                     u2161:
  4919  0DBC  2DBE               	goto	l2008
  4920  0DBD                     u2160:
  4921  0DBD                     l2006:
  4922  0DBD  1465               	bsf	___fladd@aexp,0
  4923  0DBE                     l2008:
  4924  0DBE  0865               	movf	___fladd@aexp,w
  4925  0DBF  1903               	btfsc	3,2
  4926  0DC0  2DC2               	goto	u2171
  4927  0DC1  2DC3               	goto	u2170
  4928  0DC2                     u2171:
  4929  0DC2  2DD3               	goto	l2018
  4930  0DC3                     u2170:
  4931  0DC3                     l2010:
  4932  0DC3  0A65               	incf	___fladd@aexp,w
  4933  0DC4  1D03               	btfss	3,2
  4934  0DC5  2DC7               	goto	u2181
  4935  0DC6  2DC8               	goto	u2180
  4936  0DC7                     u2181:
  4937  0DC7  2DD0               	goto	l2014
  4938  0DC8                     u2180:
  4939  0DC8                     l2012:
  4940  0DC8  3000               	movlw	0
  4941  0DC9  00DB               	movwf	___fladd@a+3
  4942  0DCA  3000               	movlw	0
  4943  0DCB  00DA               	movwf	___fladd@a+2
  4944  0DCC  3000               	movlw	0
  4945  0DCD  00D9               	movwf	___fladd@a+1
  4946  0DCE  3000               	movlw	0
  4947  0DCF  00D8               	movwf	___fladd@a
  4948  0DD0                     l2014:
  4949  0DD0  17DA               	bsf	___fladd@a+2,7
  4950  0DD1                     l2016:
  4951  0DD1  01DB               	clrf	___fladd@a+3
  4952  0DD2  2DDB               	goto	l545
  4953  0DD3                     l2018:
  4954  0DD3  3000               	movlw	0
  4955  0DD4  00DB               	movwf	___fladd@a+3
  4956  0DD5  3000               	movlw	0
  4957  0DD6  00DA               	movwf	___fladd@a+2
  4958  0DD7  3000               	movlw	0
  4959  0DD8  00D9               	movwf	___fladd@a+1
  4960  0DD9  3000               	movlw	0
  4961  0DDA  00D8               	movwf	___fladd@a
  4962  0DDB                     l545:
  4963  0DDB  0866               	movf	___fladd@bexp,w
  4964  0DDC  0265               	subwf	___fladd@aexp,w
  4965  0DDD  1803               	skipnc
  4966  0DDE  2DE0               	goto	u2191
  4967  0DDF  2DE1               	goto	u2190
  4968  0DE0                     u2191:
  4969  0DE0  2E25               	goto	l2054
  4970  0DE1                     u2190:
  4971  0DE1                     l2020:
  4972  0DE1  1F64               	btfss	___fladd@signs,6
  4973  0DE2  2DE4               	goto	u2201
  4974  0DE3  2DE5               	goto	u2200
  4975  0DE4                     u2201:
  4976  0DE4  2DE9               	goto	l2024
  4977  0DE5                     u2200:
  4978  0DE5                     l2022:
  4979  0DE5  3080               	movlw	128
  4980  0DE6  00DC               	movwf	??___fladd
  4981  0DE7  085C               	movf	??___fladd,w
  4982  0DE8  06E4               	xorwf	___fladd@signs,f
  4983  0DE9                     l2024:
  4984  0DE9  0866               	movf	___fladd@bexp,w
  4985  0DEA  00DC               	movwf	??___fladd
  4986  0DEB  085C               	movf	??___fladd,w
  4987  0DEC  00E7               	movwf	___fladd@grs
  4988  0DED                     l2026:
  4989  0DED  0865               	movf	___fladd@aexp,w
  4990  0DEE  00DC               	movwf	??___fladd
  4991  0DEF  085C               	movf	??___fladd,w
  4992  0DF0  00E6               	movwf	___fladd@bexp
  4993  0DF1                     l2028:
  4994  0DF1  0867               	movf	___fladd@grs,w
  4995  0DF2  00DC               	movwf	??___fladd
  4996  0DF3  085C               	movf	??___fladd,w
  4997  0DF4  00E5               	movwf	___fladd@aexp
  4998  0DF5                     l2030:
  4999  0DF5  0854               	movf	___fladd@b,w
  5000  0DF6  00DC               	movwf	??___fladd
  5001  0DF7  085C               	movf	??___fladd,w
  5002  0DF8  00E7               	movwf	___fladd@grs
  5003  0DF9                     l2032:
  5004  0DF9  0858               	movf	___fladd@a,w
  5005  0DFA  00DC               	movwf	??___fladd
  5006  0DFB  085C               	movf	??___fladd,w
  5007  0DFC  00D4               	movwf	___fladd@b
  5008  0DFD                     l2034:
  5009  0DFD  0867               	movf	___fladd@grs,w
  5010  0DFE  00DC               	movwf	??___fladd
  5011  0DFF  085C               	movf	??___fladd,w
  5012  0E00  00D8               	movwf	___fladd@a
  5013  0E01                     l2036:
  5014  0E01  0855               	movf	___fladd@b+1,w
  5015  0E02  00DC               	movwf	??___fladd
  5016  0E03  085C               	movf	??___fladd,w
  5017  0E04  00E7               	movwf	___fladd@grs
  5018  0E05                     l2038:
  5019  0E05  0859               	movf	___fladd@a+1,w
  5020  0E06  00DC               	movwf	??___fladd
  5021  0E07  085C               	movf	??___fladd,w
  5022  0E08  00D5               	movwf	___fladd@b+1
  5023  0E09                     l2040:
  5024  0E09  0867               	movf	___fladd@grs,w
  5025  0E0A  00DC               	movwf	??___fladd
  5026  0E0B  085C               	movf	??___fladd,w
  5027  0E0C  00D9               	movwf	___fladd@a+1
  5028  0E0D                     l2042:
  5029  0E0D  0856               	movf	___fladd@b+2,w
  5030  0E0E  00DC               	movwf	??___fladd
  5031  0E0F  085C               	movf	??___fladd,w
  5032  0E10  00E7               	movwf	___fladd@grs
  5033  0E11                     l2044:
  5034  0E11  085A               	movf	___fladd@a+2,w
  5035  0E12  00DC               	movwf	??___fladd
  5036  0E13  085C               	movf	??___fladd,w
  5037  0E14  00D6               	movwf	___fladd@b+2
  5038  0E15                     l2046:
  5039  0E15  0867               	movf	___fladd@grs,w
  5040  0E16  00DC               	movwf	??___fladd
  5041  0E17  085C               	movf	??___fladd,w
  5042  0E18  00DA               	movwf	___fladd@a+2
  5043  0E19                     l2048:
  5044  0E19  0857               	movf	___fladd@b+3,w
  5045  0E1A  00DC               	movwf	??___fladd
  5046  0E1B  085C               	movf	??___fladd,w
  5047  0E1C  00E7               	movwf	___fladd@grs
  5048  0E1D                     l2050:
  5049  0E1D  085B               	movf	___fladd@a+3,w
  5050  0E1E  00DC               	movwf	??___fladd
  5051  0E1F  085C               	movf	??___fladd,w
  5052  0E20  00D7               	movwf	___fladd@b+3
  5053  0E21                     l2052:
  5054  0E21  0867               	movf	___fladd@grs,w
  5055  0E22  00DC               	movwf	??___fladd
  5056  0E23  085C               	movf	??___fladd,w
  5057  0E24  00DB               	movwf	___fladd@a+3
  5058  0E25                     l2054:
  5059  0E25  01E7               	clrf	___fladd@grs
  5060  0E26                     l2056:
  5061  0E26  0865               	movf	___fladd@aexp,w
  5062  0E27  00DC               	movwf	??___fladd
  5063  0E28  01DD               	clrf	??___fladd+1
  5064  0E29  085D               	movf	??___fladd+1,w
  5065  0E2A  00DF               	movwf	??___fladd+3
  5066  0E2B  0866               	movf	___fladd@bexp,w
  5067  0E2C  025C               	subwf	??___fladd,w
  5068  0E2D  00DE               	movwf	??___fladd+2
  5069  0E2E  1C03               	skipc
  5070  0E2F  03DF               	decf	??___fladd+3,f
  5071  0E30  085F               	movf	??___fladd+3,w
  5072  0E31  3A80               	xorlw	128
  5073  0E32  00FF               	movwf	btemp+1
  5074  0E33  3080               	movlw	128
  5075  0E34  027F               	subwf	btemp+1,w
  5076  0E35  1D03               	skipz
  5077  0E36  2E39               	goto	u2215
  5078  0E37  301A               	movlw	26
  5079  0E38  025E               	subwf	??___fladd+2,w
  5080  0E39                     u2215:
  5081  0E39  1C03               	skipc
  5082  0E3A  2E3C               	goto	u2211
  5083  0E3B  2E3D               	goto	u2210
  5084  0E3C                     u2211:
  5085  0E3C  2E7A               	goto	l2072
  5086  0E3D                     u2210:
  5087  0E3D                     l2058:
  5088  0E3D  1283               	bcf	3,5	;RP0=0, select bank0
  5089  0E3E  1303               	bcf	3,6	;RP1=0, select bank0
  5090  0E3F  0857               	movf	___fladd@b+3,w
  5091  0E40  0456               	iorwf	___fladd@b+2,w
  5092  0E41  0455               	iorwf	___fladd@b+1,w
  5093  0E42  0454               	iorwf	___fladd@b,w
  5094  0E43  1D03               	skipz
  5095  0E44  2E46               	goto	u2221
  5096  0E45  2E48               	goto	u2220
  5097  0E46                     u2221:
  5098  0E46  3001               	movlw	1
  5099  0E47  2E49               	goto	u2230
  5100  0E48                     u2220:
  5101  0E48  3000               	movlw	0
  5102  0E49                     u2230:
  5103  0E49  00DC               	movwf	??___fladd
  5104  0E4A  085C               	movf	??___fladd,w
  5105  0E4B  00E7               	movwf	___fladd@grs
  5106  0E4C  3000               	movlw	0
  5107  0E4D  00D7               	movwf	___fladd@b+3
  5108  0E4E  3000               	movlw	0
  5109  0E4F  00D6               	movwf	___fladd@b+2
  5110  0E50  3000               	movlw	0
  5111  0E51  00D5               	movwf	___fladd@b+1
  5112  0E52  3000               	movlw	0
  5113  0E53  00D4               	movwf	___fladd@b
  5114  0E54  0865               	movf	___fladd@aexp,w
  5115  0E55  00DC               	movwf	??___fladd
  5116  0E56  085C               	movf	??___fladd,w
  5117  0E57  00E6               	movwf	___fladd@bexp
  5118  0E58  2E82               	goto	l549
  5119  0E59                     l551:
  5120  0E59  1C67               	btfss	___fladd@grs,0
  5121  0E5A  2E5C               	goto	u2241
  5122  0E5B  2E5D               	goto	u2240
  5123  0E5C                     u2241:
  5124  0E5C  2E66               	goto	l2062
  5125  0E5D                     u2240:
  5126  0E5D                     l2060:
  5127  0E5D  0867               	movf	___fladd@grs,w
  5128  0E5E  00DC               	movwf	??___fladd
  5129  0E5F  1003               	clrc
  5130  0E60  0C5C               	rrf	??___fladd,w
  5131  0E61  3801               	iorlw	1
  5132  0E62  00DD               	movwf	??___fladd+1
  5133  0E63  085D               	movf	??___fladd+1,w
  5134  0E64  00E7               	movwf	___fladd@grs
  5135  0E65  2E68               	goto	l2064
  5136  0E66                     l2062:
  5137  0E66  1003               	clrc
  5138  0E67  0CE7               	rrf	___fladd@grs,f
  5139  0E68                     l2064:
  5140  0E68  1C54               	btfss	___fladd@b,0
  5141  0E69  2E6B               	goto	u2251
  5142  0E6A  2E6C               	goto	u2250
  5143  0E6B                     u2251:
  5144  0E6B  2E6D               	goto	l2068
  5145  0E6C                     u2250:
  5146  0E6C                     l2066:
  5147  0E6C  17E7               	bsf	___fladd@grs,7
  5148  0E6D                     l2068:
  5149  0E6D  3001               	movlw	1
  5150  0E6E  00DC               	movwf	??___fladd
  5151  0E6F                     u2265:
  5152  0E6F  0D57               	rlf	___fladd@b+3,w
  5153  0E70  0CD7               	rrf	___fladd@b+3,f
  5154  0E71  0CD6               	rrf	___fladd@b+2,f
  5155  0E72  0CD5               	rrf	___fladd@b+1,f
  5156  0E73  0CD4               	rrf	___fladd@b,f
  5157  0E74  0BDC               	decfsz	??___fladd& (0+127),f
  5158  0E75  2E6F               	goto	u2265
  5159  0E76                     l2070:
  5160  0E76  3001               	movlw	1
  5161  0E77  00DC               	movwf	??___fladd
  5162  0E78  085C               	movf	??___fladd,w
  5163  0E79  07E6               	addwf	___fladd@bexp,f
  5164  0E7A                     l2072:
  5165  0E7A  1283               	bcf	3,5	;RP0=0, select bank0
  5166  0E7B  1303               	bcf	3,6	;RP1=0, select bank0
  5167  0E7C  0865               	movf	___fladd@aexp,w
  5168  0E7D  0266               	subwf	___fladd@bexp,w
  5169  0E7E  1C03               	skipc
  5170  0E7F  2E81               	goto	u2271
  5171  0E80  2E82               	goto	u2270
  5172  0E81                     u2271:
  5173  0E81  2E59               	goto	l551
  5174  0E82                     u2270:
  5175  0E82                     l549:
  5176  0E82  1B64               	btfsc	___fladd@signs,6
  5177  0E83  2E85               	goto	u2281
  5178  0E84  2E86               	goto	u2280
  5179  0E85                     u2281:
  5180  0E85  2ED1               	goto	l2098
  5181  0E86                     u2280:
  5182  0E86                     l2074:
  5183  0E86  0866               	movf	___fladd@bexp,w
  5184  0E87  1D03               	btfss	3,2
  5185  0E88  2E8A               	goto	u2291
  5186  0E89  2E8B               	goto	u2290
  5187  0E8A                     u2291:
  5188  0E8A  2E94               	goto	l2080
  5189  0E8B                     u2290:
  5190  0E8B                     l2076:
  5191  0E8B  3000               	movlw	0
  5192  0E8C  00D7               	movwf	?___fladd+3
  5193  0E8D  3000               	movlw	0
  5194  0E8E  00D6               	movwf	?___fladd+2
  5195  0E8F  3000               	movlw	0
  5196  0E90  00D5               	movwf	?___fladd+1
  5197  0E91  3000               	movlw	0
  5198  0E92  00D4               	movwf	?___fladd
  5199  0E93  2FFF               	goto	l558
  5200  0E94                     l2080:
  5201  0E94  0858               	movf	___fladd@a,w
  5202  0E95  07D4               	addwf	___fladd@b,f
  5203  0E96  0859               	movf	___fladd@a+1,w
  5204  0E97  1103               	clrz
  5205  0E98  1803               	skipnc
  5206  0E99  3E01               	addlw	1
  5207  0E9A  1903               	skipnz
  5208  0E9B  2E9D               	goto	u2301
  5209  0E9C  07D5               	addwf	___fladd@b+1,f
  5210  0E9D                     u2301:
  5211  0E9D  085A               	movf	___fladd@a+2,w
  5212  0E9E  1103               	clrz
  5213  0E9F  1803               	skipnc
  5214  0EA0  3E01               	addlw	1
  5215  0EA1  1903               	skipnz
  5216  0EA2  2EA4               	goto	u2302
  5217  0EA3  07D6               	addwf	___fladd@b+2,f
  5218  0EA4                     u2302:
  5219  0EA4  085B               	movf	___fladd@a+3,w
  5220  0EA5  1103               	clrz
  5221  0EA6  1803               	skipnc
  5222  0EA7  3E01               	addlw	1
  5223  0EA8  1903               	skipnz
  5224  0EA9  2EAB               	goto	u2303
  5225  0EAA  07D7               	addwf	___fladd@b+3,f
  5226  0EAB                     u2303:
  5227  0EAB                     l2082:
  5228  0EAB  1C57               	btfss	___fladd@b+3,0
  5229  0EAC  2EAE               	goto	u2311
  5230  0EAD  2EAF               	goto	u2310
  5231  0EAE                     u2311:
  5232  0EAE  2F85               	goto	l2132
  5233  0EAF                     u2310:
  5234  0EAF                     l2084:
  5235  0EAF  1C67               	btfss	___fladd@grs,0
  5236  0EB0  2EB2               	goto	u2321
  5237  0EB1  2EB3               	goto	u2320
  5238  0EB2                     u2321:
  5239  0EB2  2EBC               	goto	l2088
  5240  0EB3                     u2320:
  5241  0EB3                     l2086:
  5242  0EB3  0867               	movf	___fladd@grs,w
  5243  0EB4  00DC               	movwf	??___fladd
  5244  0EB5  1003               	clrc
  5245  0EB6  0C5C               	rrf	??___fladd,w
  5246  0EB7  3801               	iorlw	1
  5247  0EB8  00DD               	movwf	??___fladd+1
  5248  0EB9  085D               	movf	??___fladd+1,w
  5249  0EBA  00E7               	movwf	___fladd@grs
  5250  0EBB  2EBE               	goto	l2090
  5251  0EBC                     l2088:
  5252  0EBC  1003               	clrc
  5253  0EBD  0CE7               	rrf	___fladd@grs,f
  5254  0EBE                     l2090:
  5255  0EBE  1C54               	btfss	___fladd@b,0
  5256  0EBF  2EC1               	goto	u2331
  5257  0EC0  2EC2               	goto	u2330
  5258  0EC1                     u2331:
  5259  0EC1  2EC3               	goto	l2094
  5260  0EC2                     u2330:
  5261  0EC2                     l2092:
  5262  0EC2  17E7               	bsf	___fladd@grs,7
  5263  0EC3                     l2094:
  5264  0EC3  3001               	movlw	1
  5265  0EC4  00DC               	movwf	??___fladd
  5266  0EC5                     u2345:
  5267  0EC5  0D57               	rlf	___fladd@b+3,w
  5268  0EC6  0CD7               	rrf	___fladd@b+3,f
  5269  0EC7  0CD6               	rrf	___fladd@b+2,f
  5270  0EC8  0CD5               	rrf	___fladd@b+1,f
  5271  0EC9  0CD4               	rrf	___fladd@b,f
  5272  0ECA  0BDC               	decfsz	??___fladd& (0+127),f
  5273  0ECB  2EC5               	goto	u2345
  5274  0ECC                     l2096:
  5275  0ECC  3001               	movlw	1
  5276  0ECD  00DC               	movwf	??___fladd
  5277  0ECE  085C               	movf	??___fladd,w
  5278  0ECF  07E6               	addwf	___fladd@bexp,f
  5279  0ED0  2F85               	goto	l2132
  5280  0ED1                     l2098:
  5281  0ED1  0857               	movf	___fladd@b+3,w
  5282  0ED2  3A80               	xorlw	128
  5283  0ED3  00FF               	movwf	btemp+1
  5284  0ED4  085B               	movf	___fladd@a+3,w
  5285  0ED5  3A80               	xorlw	128
  5286  0ED6  027F               	subwf	btemp+1,w
  5287  0ED7  1D03               	skipz
  5288  0ED8  2EE3               	goto	u2353
  5289  0ED9  085A               	movf	___fladd@a+2,w
  5290  0EDA  0256               	subwf	___fladd@b+2,w
  5291  0EDB  1D03               	skipz
  5292  0EDC  2EE3               	goto	u2353
  5293  0EDD  0859               	movf	___fladd@a+1,w
  5294  0EDE  0255               	subwf	___fladd@b+1,w
  5295  0EDF  1D03               	skipz
  5296  0EE0  2EE3               	goto	u2353
  5297  0EE1  0858               	movf	___fladd@a,w
  5298  0EE2  0254               	subwf	___fladd@b,w
  5299  0EE3                     u2353:
  5300  0EE3  1803               	skipnc
  5301  0EE4  2EE6               	goto	u2351
  5302  0EE5  2EE7               	goto	u2350
  5303  0EE6                     u2351:
  5304  0EE6  2F3F               	goto	l2108
  5305  0EE7                     u2350:
  5306  0EE7                     l2100:
  5307  0EE7  30FF               	movlw	255
  5308  0EE8  00DC               	movwf	??___fladd
  5309  0EE9  30FF               	movlw	255
  5310  0EEA  00DD               	movwf	??___fladd+1
  5311  0EEB  30FF               	movlw	255
  5312  0EEC  00DE               	movwf	??___fladd+2
  5313  0EED  30FF               	movlw	255
  5314  0EEE  00DF               	movwf	??___fladd+3
  5315  0EEF  0858               	movf	___fladd@a,w
  5316  0EF0  00E0               	movwf	??___fladd+4
  5317  0EF1  0859               	movf	___fladd@a+1,w
  5318  0EF2  00E1               	movwf	??___fladd+5
  5319  0EF3  085A               	movf	___fladd@a+2,w
  5320  0EF4  00E2               	movwf	??___fladd+6
  5321  0EF5  085B               	movf	___fladd@a+3,w
  5322  0EF6  00E3               	movwf	??___fladd+7
  5323  0EF7  0854               	movf	___fladd@b,w
  5324  0EF8  02E0               	subwf	??___fladd+4,f
  5325  0EF9  0855               	movf	___fladd@b+1,w
  5326  0EFA  1C03               	skipc
  5327  0EFB  0F55               	incfsz	___fladd@b+1,w
  5328  0EFC  2EFE               	goto	u2361
  5329  0EFD  2EFF               	goto	u2362
  5330  0EFE                     u2361:
  5331  0EFE  02E1               	subwf	??___fladd+5,f
  5332  0EFF                     u2362:
  5333  0EFF  0856               	movf	___fladd@b+2,w
  5334  0F00  1C03               	skipc
  5335  0F01  0F56               	incfsz	___fladd@b+2,w
  5336  0F02  2F04               	goto	u2363
  5337  0F03  2F05               	goto	u2364
  5338  0F04                     u2363:
  5339  0F04  02E2               	subwf	??___fladd+6,f
  5340  0F05                     u2364:
  5341  0F05  0857               	movf	___fladd@b+3,w
  5342  0F06  1C03               	skipc
  5343  0F07  0F57               	incfsz	___fladd@b+3,w
  5344  0F08  2F0A               	goto	u2365
  5345  0F09  2F0B               	goto	u2366
  5346  0F0A                     u2365:
  5347  0F0A  02E3               	subwf	??___fladd+7,f
  5348  0F0B                     u2366:
  5349  0F0B  0860               	movf	??___fladd+4,w
  5350  0F0C  07DC               	addwf	??___fladd,f
  5351  0F0D  0861               	movf	??___fladd+5,w
  5352  0F0E  1803               	skipnc
  5353  0F0F  0F61               	incfsz	??___fladd+5,w
  5354  0F10  2F12               	goto	u2370
  5355  0F11  2F13               	goto	u2371
  5356  0F12                     u2370:
  5357  0F12  07DD               	addwf	??___fladd+1,f
  5358  0F13                     u2371:
  5359  0F13  0862               	movf	??___fladd+6,w
  5360  0F14  1803               	skipnc
  5361  0F15  0F62               	incfsz	??___fladd+6,w
  5362  0F16  2F18               	goto	u2372
  5363  0F17  2F19               	goto	u2373
  5364  0F18                     u2372:
  5365  0F18  07DE               	addwf	??___fladd+2,f
  5366  0F19                     u2373:
  5367  0F19  0863               	movf	??___fladd+7,w
  5368  0F1A  1803               	skipnc
  5369  0F1B  0A63               	incf	??___fladd+7,w
  5370  0F1C  07DF               	addwf	??___fladd+3,f
  5371  0F1D  085F               	movf	??___fladd+3,w
  5372  0F1E  00D7               	movwf	___fladd@b+3
  5373  0F1F  085E               	movf	??___fladd+2,w
  5374  0F20  00D6               	movwf	___fladd@b+2
  5375  0F21  085D               	movf	??___fladd+1,w
  5376  0F22  00D5               	movwf	___fladd@b+1
  5377  0F23  085C               	movf	??___fladd,w
  5378  0F24  00D4               	movwf	___fladd@b
  5379  0F25                     l2102:
  5380  0F25  3080               	movlw	128
  5381  0F26  00DC               	movwf	??___fladd
  5382  0F27  085C               	movf	??___fladd,w
  5383  0F28  06E4               	xorwf	___fladd@signs,f
  5384  0F29  09E7               	comf	___fladd@grs,f
  5385  0F2A  0AE7               	incf	___fladd@grs,f
  5386  0F2B                     l2104:
  5387  0F2B  0867               	movf	___fladd@grs,w
  5388  0F2C  1D03               	btfss	3,2
  5389  0F2D  2F2F               	goto	u2381
  5390  0F2E  2F30               	goto	u2380
  5391  0F2F                     u2381:
  5392  0F2F  2F4D               	goto	l566
  5393  0F30                     u2380:
  5394  0F30                     l2106:
  5395  0F30  3001               	movlw	1
  5396  0F31  07D4               	addwf	___fladd@b,f
  5397  0F32  3000               	movlw	0
  5398  0F33  1803               	skipnc
  5399  0F34  3001               	movlw	1
  5400  0F35  07D5               	addwf	___fladd@b+1,f
  5401  0F36  3000               	movlw	0
  5402  0F37  1803               	skipnc
  5403  0F38  3001               	movlw	1
  5404  0F39  07D6               	addwf	___fladd@b+2,f
  5405  0F3A  3000               	movlw	0
  5406  0F3B  1803               	skipnc
  5407  0F3C  3001               	movlw	1
  5408  0F3D  07D7               	addwf	___fladd@b+3,f
  5409  0F3E  2F4D               	goto	l566
  5410  0F3F                     l2108:
  5411  0F3F  0858               	movf	___fladd@a,w
  5412  0F40  02D4               	subwf	___fladd@b,f
  5413  0F41  0859               	movf	___fladd@a+1,w
  5414  0F42  1C03               	skipc
  5415  0F43  0F59               	incfsz	___fladd@a+1,w
  5416  0F44  02D5               	subwf	___fladd@b+1,f
  5417  0F45  085A               	movf	___fladd@a+2,w
  5418  0F46  1C03               	skipc
  5419  0F47  0F5A               	incfsz	___fladd@a+2,w
  5420  0F48  02D6               	subwf	___fladd@b+2,f
  5421  0F49  085B               	movf	___fladd@a+3,w
  5422  0F4A  1C03               	skipc
  5423  0F4B  0F5B               	incfsz	___fladd@a+3,w
  5424  0F4C  02D7               	subwf	___fladd@b+3,f
  5425  0F4D                     l566:
  5426  0F4D  0857               	movf	___fladd@b+3,w
  5427  0F4E  0456               	iorwf	___fladd@b+2,w
  5428  0F4F  0455               	iorwf	___fladd@b+1,w
  5429  0F50  0454               	iorwf	___fladd@b,w
  5430  0F51  1D03               	skipz
  5431  0F52  2F54               	goto	u2391
  5432  0F53  2F55               	goto	u2390
  5433  0F54                     u2391:
  5434  0F54  2F81               	goto	l2130
  5435  0F55                     u2390:
  5436  0F55                     l2110:
  5437  0F55  0867               	movf	___fladd@grs,w
  5438  0F56  1D03               	btfss	3,2
  5439  0F57  2F59               	goto	u2401
  5440  0F58  2F5A               	goto	u2400
  5441  0F59                     u2401:
  5442  0F59  2F81               	goto	l2130
  5443  0F5A                     u2400:
  5444  0F5A                     l2112:
  5445  0F5A  3000               	movlw	0
  5446  0F5B  00D7               	movwf	?___fladd+3
  5447  0F5C  3000               	movlw	0
  5448  0F5D  00D6               	movwf	?___fladd+2
  5449  0F5E  3000               	movlw	0
  5450  0F5F  00D5               	movwf	?___fladd+1
  5451  0F60  3000               	movlw	0
  5452  0F61  00D4               	movwf	?___fladd
  5453  0F62  2FFF               	goto	l558
  5454  0F63                     l2116:
  5455  0F63  3001               	movlw	1
  5456  0F64  00DC               	movwf	??___fladd
  5457  0F65                     u2415:
  5458  0F65  1003               	clrc
  5459  0F66  0DD4               	rlf	___fladd@b,f
  5460  0F67  0DD5               	rlf	___fladd@b+1,f
  5461  0F68  0DD6               	rlf	___fladd@b+2,f
  5462  0F69  0DD7               	rlf	___fladd@b+3,f
  5463  0F6A  0BDC               	decfsz	??___fladd,f
  5464  0F6B  2F65               	goto	u2415
  5465  0F6C                     l2118:
  5466  0F6C  1FE7               	btfss	___fladd@grs,7
  5467  0F6D  2F6F               	goto	u2421
  5468  0F6E  2F70               	goto	u2420
  5469  0F6F                     u2421:
  5470  0F6F  2F71               	goto	l570
  5471  0F70                     u2420:
  5472  0F70                     l2120:
  5473  0F70  1454               	bsf	___fladd@b,0
  5474  0F71                     l570:
  5475  0F71  1C67               	btfss	___fladd@grs,0
  5476  0F72  2F74               	goto	u2431
  5477  0F73  2F75               	goto	u2430
  5478  0F74                     u2431:
  5479  0F74  2F78               	goto	l2124
  5480  0F75                     u2430:
  5481  0F75                     l2122:
  5482  0F75  1403               	setc
  5483  0F76  0DE7               	rlf	___fladd@grs,f
  5484  0F77  2F7A               	goto	l2126
  5485  0F78                     l2124:
  5486  0F78  1003               	clrc
  5487  0F79  0DE7               	rlf	___fladd@grs,f
  5488  0F7A                     l2126:
  5489  0F7A  0866               	movf	___fladd@bexp,w
  5490  0F7B  1903               	btfsc	3,2
  5491  0F7C  2F7E               	goto	u2441
  5492  0F7D  2F7F               	goto	u2440
  5493  0F7E                     u2441:
  5494  0F7E  2F81               	goto	l2130
  5495  0F7F                     u2440:
  5496  0F7F                     l2128:
  5497  0F7F  3001               	movlw	1
  5498  0F80  02E6               	subwf	___fladd@bexp,f
  5499  0F81                     l2130:
  5500  0F81  1FD6               	btfss	___fladd@b+2,7
  5501  0F82  2F84               	goto	u2451
  5502  0F83  2F85               	goto	u2450
  5503  0F84                     u2451:
  5504  0F84  2F63               	goto	l2116
  5505  0F85                     u2450:
  5506  0F85                     l2132:
  5507  0F85  01E5               	clrf	___fladd@aexp
  5508  0F86                     l2134:
  5509  0F86  1FE7               	btfss	___fladd@grs,7
  5510  0F87  2F89               	goto	u2461
  5511  0F88  2F8A               	goto	u2460
  5512  0F89                     u2461:
  5513  0F89  2F98               	goto	l2142
  5514  0F8A                     u2460:
  5515  0F8A                     l2136:
  5516  0F8A  0867               	movf	___fladd@grs,w
  5517  0F8B  397F               	andlw	127
  5518  0F8C  1903               	btfsc	3,2
  5519  0F8D  2F8F               	goto	u2471
  5520  0F8E  2F90               	goto	u2470
  5521  0F8F                     u2471:
  5522  0F8F  2F93               	goto	l576
  5523  0F90                     u2470:
  5524  0F90                     l2138:
  5525  0F90  01E5               	clrf	___fladd@aexp
  5526  0F91  0AE5               	incf	___fladd@aexp,f
  5527  0F92  2F98               	goto	l2142
  5528  0F93                     l576:
  5529  0F93  1C54               	btfss	___fladd@b,0
  5530  0F94  2F96               	goto	u2481
  5531  0F95  2F97               	goto	u2480
  5532  0F96                     u2481:
  5533  0F96  2F98               	goto	l2142
  5534  0F97                     u2480:
  5535  0F97  2F90               	goto	l2138
  5536  0F98                     l2142:
  5537  0F98  0865               	movf	___fladd@aexp,w
  5538  0F99  1903               	btfsc	3,2
  5539  0F9A  2F9C               	goto	u2491
  5540  0F9B  2F9D               	goto	u2490
  5541  0F9C                     u2491:
  5542  0F9C  2FD1               	goto	l579
  5543  0F9D                     u2490:
  5544  0F9D                     l2144:
  5545  0F9D  3001               	movlw	1
  5546  0F9E  07D4               	addwf	___fladd@b,f
  5547  0F9F  3000               	movlw	0
  5548  0FA0  1803               	skipnc
  5549  0FA1  3001               	movlw	1
  5550  0FA2  07D5               	addwf	___fladd@b+1,f
  5551  0FA3  3000               	movlw	0
  5552  0FA4  1803               	skipnc
  5553  0FA5  3001               	movlw	1
  5554  0FA6  07D6               	addwf	___fladd@b+2,f
  5555  0FA7  3000               	movlw	0
  5556  0FA8  1803               	skipnc
  5557  0FA9  3001               	movlw	1
  5558  0FAA  07D7               	addwf	___fladd@b+3,f
  5559  0FAB                     l2146:
  5560  0FAB  1C57               	btfss	___fladd@b+3,0
  5561  0FAC  2FAE               	goto	u2501
  5562  0FAD  2FAF               	goto	u2500
  5563  0FAE                     u2501:
  5564  0FAE  2FD1               	goto	l579
  5565  0FAF                     u2500:
  5566  0FAF                     l2148:
  5567  0FAF  0854               	movf	___fladd@b,w
  5568  0FB0  00DC               	movwf	??___fladd
  5569  0FB1  0855               	movf	___fladd@b+1,w
  5570  0FB2  00DD               	movwf	??___fladd+1
  5571  0FB3  0856               	movf	___fladd@b+2,w
  5572  0FB4  00DE               	movwf	??___fladd+2
  5573  0FB5  0857               	movf	___fladd@b+3,w
  5574  0FB6  00DF               	movwf	??___fladd+3
  5575  0FB7  3001               	movlw	1
  5576  0FB8  00E0               	movwf	??___fladd+4
  5577  0FB9                     u2515:
  5578  0FB9  0D5F               	rlf	??___fladd+3,w
  5579  0FBA  0CDF               	rrf	??___fladd+3,f
  5580  0FBB  0CDE               	rrf	??___fladd+2,f
  5581  0FBC  0CDD               	rrf	??___fladd+1,f
  5582  0FBD  0CDC               	rrf	??___fladd,f
  5583  0FBE                     u2510:
  5584  0FBE  0BE0               	decfsz	??___fladd+4,f
  5585  0FBF  2FB9               	goto	u2515
  5586  0FC0  085F               	movf	??___fladd+3,w
  5587  0FC1  00D7               	movwf	___fladd@b+3
  5588  0FC2  085E               	movf	??___fladd+2,w
  5589  0FC3  00D6               	movwf	___fladd@b+2
  5590  0FC4  085D               	movf	??___fladd+1,w
  5591  0FC5  00D5               	movwf	___fladd@b+1
  5592  0FC6  085C               	movf	??___fladd,w
  5593  0FC7  00D4               	movwf	___fladd@b
  5594  0FC8  0A66               	incf	___fladd@bexp,w
  5595  0FC9  1903               	btfsc	3,2
  5596  0FCA  2FCC               	goto	u2521
  5597  0FCB  2FCD               	goto	u2520
  5598  0FCC                     u2521:
  5599  0FCC  2FD1               	goto	l579
  5600  0FCD                     u2520:
  5601  0FCD                     l2150:
  5602  0FCD  3001               	movlw	1
  5603  0FCE  00DC               	movwf	??___fladd
  5604  0FCF  085C               	movf	??___fladd,w
  5605  0FD0  07E6               	addwf	___fladd@bexp,f
  5606  0FD1                     l579:
  5607  0FD1  0A66               	incf	___fladd@bexp,w
  5608  0FD2  1903               	btfsc	3,2
  5609  0FD3  2FD5               	goto	u2531
  5610  0FD4  2FD6               	goto	u2530
  5611  0FD5                     u2531:
  5612  0FD5  2FDB               	goto	l2154
  5613  0FD6                     u2530:
  5614  0FD6                     l2152:
  5615  0FD6  0866               	movf	___fladd@bexp,w
  5616  0FD7  1D03               	btfss	3,2
  5617  0FD8  2FDA               	goto	u2541
  5618  0FD9  2FDB               	goto	u2540
  5619  0FDA                     u2541:
  5620  0FDA  2FE9               	goto	l2160
  5621  0FDB                     u2540:
  5622  0FDB                     l2154:
  5623  0FDB  3000               	movlw	0
  5624  0FDC  00D7               	movwf	___fladd@b+3
  5625  0FDD  3000               	movlw	0
  5626  0FDE  00D6               	movwf	___fladd@b+2
  5627  0FDF  3000               	movlw	0
  5628  0FE0  00D5               	movwf	___fladd@b+1
  5629  0FE1  3000               	movlw	0
  5630  0FE2  00D4               	movwf	___fladd@b
  5631  0FE3                     l2156:
  5632  0FE3  0866               	movf	___fladd@bexp,w
  5633  0FE4  1D03               	btfss	3,2
  5634  0FE5  2FE7               	goto	u2551
  5635  0FE6  2FE8               	goto	u2550
  5636  0FE7                     u2551:
  5637  0FE7  2FE9               	goto	l2160
  5638  0FE8                     u2550:
  5639  0FE8                     l2158:
  5640  0FE8  01E4               	clrf	___fladd@signs
  5641  0FE9                     l2160:
  5642  0FE9  1C66               	btfss	___fladd@bexp,0
  5643  0FEA  2FEC               	goto	u2561
  5644  0FEB  2FED               	goto	u2560
  5645  0FEC                     u2561:
  5646  0FEC  2FEF               	goto	l2164
  5647  0FED                     u2560:
  5648  0FED                     l2162:
  5649  0FED  17D6               	bsf	___fladd@b+2,7
  5650  0FEE  2FF3               	goto	l587
  5651  0FEF                     l2164:
  5652  0FEF  307F               	movlw	127
  5653  0FF0  00DC               	movwf	??___fladd
  5654  0FF1  085C               	movf	??___fladd,w
  5655  0FF2  05D6               	andwf	___fladd@b+2,f
  5656  0FF3                     l587:
  5657  0FF3  0866               	movf	___fladd@bexp,w
  5658  0FF4  00DC               	movwf	??___fladd
  5659  0FF5  1003               	clrc
  5660  0FF6  0C5C               	rrf	??___fladd,w
  5661  0FF7  00DD               	movwf	??___fladd+1
  5662  0FF8  085D               	movf	??___fladd+1,w
  5663  0FF9  00D7               	movwf	___fladd@b+3
  5664  0FFA                     l2166:
  5665  0FFA  1FE4               	btfss	___fladd@signs,7
  5666  0FFB  2FFD               	goto	u2571
  5667  0FFC  2FFE               	goto	u2570
  5668  0FFD                     u2571:
  5669  0FFD  2FFF               	goto	l588
  5670  0FFE                     u2570:
  5671  0FFE                     l2168:
  5672  0FFE  17D7               	bsf	___fladd@b+3,7
  5673  0FFF                     l588:
  5674  0FFF                     l558:
  5675  0FFF  0008               	return
  5676  1000                     __end_of___fladd:
  5677                           
  5678                           	psect	text12
  5679  0861                     __ptext12:	
  5680 ;; *************** function ___bmul *****************
  5681 ;; Defined at:
  5682 ;;		line 4 in file "C:\Program Files\Microchip\xc8\v2.31\pic\sources\c90\common\Umul8.c"
  5683 ;; Parameters:    Size  Location     Type
  5684 ;;  multiplier      1    wreg     unsigned char 
  5685 ;;  multiplicand    1    0[COMMON] unsigned char 
  5686 ;; Auto vars:     Size  Location     Type
  5687 ;;  multiplier      1    3[COMMON] unsigned char 
  5688 ;;  product         1    2[COMMON] unsigned char 
  5689 ;; Return value:  Size  Location     Type
  5690 ;;                  1    wreg      unsigned char 
  5691 ;; Registers used:
  5692 ;;		wreg, status,2, status,0
  5693 ;; Tracked objects:
  5694 ;;		On entry : 0/0
  5695 ;;		On exit  : 0/0
  5696 ;;		Unchanged: 0/0
  5697 ;; Data sizes:     COMMON   BANK0   BANK1   BANK3   BANK2
  5698 ;;      Params:         1       0       0       0       0
  5699 ;;      Locals:         2       0       0       0       0
  5700 ;;      Temps:          1       0       0       0       0
  5701 ;;      Totals:         4       0       0       0       0
  5702 ;;Total ram usage:        4 bytes
  5703 ;; Hardware stack levels used:    1
  5704 ;; This function calls:
  5705 ;;		Nothing
  5706 ;; This function is called by:
  5707 ;;		_main
  5708 ;; This function uses a non-reentrant model
  5709 ;;
  5710                           
  5711                           
  5712                           ;psect for function ___bmul
  5713  0861                     ___bmul:
  5714                           
  5715                           ;incstack = 0
  5716                           ; Regs used in ___bmul: [wreg+status,2+status,0]
  5717                           ;___bmul@multiplier stored from wreg
  5718  0861  00F3               	movwf	___bmul@multiplier
  5719  0862                     l1882:
  5720  0862  01F2               	clrf	___bmul@product
  5721  0863                     l1884:
  5722  0863  1C73               	btfss	___bmul@multiplier,0
  5723  0864  2866               	goto	u1901
  5724  0865  2867               	goto	u1900
  5725  0866                     u1901:
  5726  0866  286B               	goto	l1888
  5727  0867                     u1900:
  5728  0867                     l1886:
  5729  0867  0870               	movf	___bmul@multiplicand,w
  5730  0868  00F1               	movwf	??___bmul
  5731  0869  0871               	movf	??___bmul,w
  5732  086A  07F2               	addwf	___bmul@product,f
  5733  086B                     l1888:
  5734  086B  1003               	clrc
  5735  086C  0DF0               	rlf	___bmul@multiplicand,f
  5736  086D                     l1890:
  5737  086D  1003               	clrc
  5738  086E  0CF3               	rrf	___bmul@multiplier,f
  5739  086F  0873               	movf	___bmul@multiplier,w
  5740  0870  1D03               	btfss	3,2
  5741  0871  2873               	goto	u1911
  5742  0872  2874               	goto	u1910
  5743  0873                     u1911:
  5744  0873  2863               	goto	l1884
  5745  0874                     u1910:
  5746  0874                     l1892:
  5747  0874  0872               	movf	___bmul@product,w
  5748  0875                     l278:
  5749  0875  0008               	return
  5750  0876                     __end_of___bmul:
  5751                           
  5752                           	psect	text13
  5753  0A1C                     __ptext13:	
  5754 ;; *************** function ___awdiv *****************
  5755 ;; Defined at:
  5756 ;;		line 5 in file "C:\Program Files\Microchip\xc8\v2.31\pic\sources\c90\common\awdiv.c"
  5757 ;; Parameters:    Size  Location     Type
  5758 ;;  divisor         2    6[COMMON] int 
  5759 ;;  dividend        2    8[COMMON] int 
  5760 ;; Auto vars:     Size  Location     Type
  5761 ;;  quotient        2    2[BANK0 ] int 
  5762 ;;  sign            1    1[BANK0 ] unsigned char 
  5763 ;;  counter         1    0[BANK0 ] unsigned char 
  5764 ;; Return value:  Size  Location     Type
  5765 ;;                  2    6[COMMON] int 
  5766 ;; Registers used:
  5767 ;;		wreg, status,2, status,0
  5768 ;; Tracked objects:
  5769 ;;		On entry : 0/0
  5770 ;;		On exit  : 0/0
  5771 ;;		Unchanged: 0/0
  5772 ;; Data sizes:     COMMON   BANK0   BANK1   BANK3   BANK2
  5773 ;;      Params:         4       0       0       0       0
  5774 ;;      Locals:         0       4       0       0       0
  5775 ;;      Temps:          1       0       0       0       0
  5776 ;;      Totals:         5       4       0       0       0
  5777 ;;Total ram usage:        9 bytes
  5778 ;; Hardware stack levels used:    1
  5779 ;; This function calls:
  5780 ;;		Nothing
  5781 ;; This function is called by:
  5782 ;;		_main
  5783 ;; This function uses a non-reentrant model
  5784 ;;
  5785                           
  5786                           
  5787                           ;psect for function ___awdiv
  5788  0A1C                     ___awdiv:
  5789  0A1C                     l1896:	
  5790                           ;incstack = 0
  5791                           ; Regs used in ___awdiv: [wreg+status,2+status,0]
  5792                           
  5793  0A1C  1283               	bcf	3,5	;RP0=0, select bank0
  5794  0A1D  1303               	bcf	3,6	;RP1=0, select bank0
  5795  0A1E  01A1               	clrf	___awdiv@sign
  5796  0A1F                     l1898:
  5797  0A1F  1FF7               	btfss	___awdiv@divisor+1,7
  5798  0A20  2A22               	goto	u1921
  5799  0A21  2A23               	goto	u1920
  5800  0A22                     u1921:
  5801  0A22  2A2A               	goto	l1904
  5802  0A23                     u1920:
  5803  0A23                     l1900:
  5804  0A23  09F6               	comf	___awdiv@divisor,f
  5805  0A24  09F7               	comf	___awdiv@divisor+1,f
  5806  0A25  0AF6               	incf	___awdiv@divisor,f
  5807  0A26  1903               	skipnz
  5808  0A27  0AF7               	incf	___awdiv@divisor+1,f
  5809  0A28                     l1902:
  5810  0A28  01A1               	clrf	___awdiv@sign
  5811  0A29  0AA1               	incf	___awdiv@sign,f
  5812  0A2A                     l1904:
  5813  0A2A  1FF9               	btfss	___awdiv@dividend+1,7
  5814  0A2B  2A2D               	goto	u1931
  5815  0A2C  2A2E               	goto	u1930
  5816  0A2D                     u1931:
  5817  0A2D  2A37               	goto	l1910
  5818  0A2E                     u1930:
  5819  0A2E                     l1906:
  5820  0A2E  09F8               	comf	___awdiv@dividend,f
  5821  0A2F  09F9               	comf	___awdiv@dividend+1,f
  5822  0A30  0AF8               	incf	___awdiv@dividend,f
  5823  0A31  1903               	skipnz
  5824  0A32  0AF9               	incf	___awdiv@dividend+1,f
  5825  0A33                     l1908:
  5826  0A33  3001               	movlw	1
  5827  0A34  00FA               	movwf	??___awdiv
  5828  0A35  087A               	movf	??___awdiv,w
  5829  0A36  06A1               	xorwf	___awdiv@sign,f
  5830  0A37                     l1910:
  5831  0A37  01A2               	clrf	___awdiv@quotient
  5832  0A38  01A3               	clrf	___awdiv@quotient+1
  5833  0A39                     l1912:
  5834  0A39  0876               	movf	___awdiv@divisor,w
  5835  0A3A  0477               	iorwf	___awdiv@divisor+1,w
  5836  0A3B  1903               	btfsc	3,2
  5837  0A3C  2A3E               	goto	u1941
  5838  0A3D  2A3F               	goto	u1940
  5839  0A3E                     u1941:
  5840  0A3E  2A76               	goto	l1932
  5841  0A3F                     u1940:
  5842  0A3F                     l1914:
  5843  0A3F  01A0               	clrf	___awdiv@counter
  5844  0A40  0AA0               	incf	___awdiv@counter,f
  5845  0A41  2A4D               	goto	l1920
  5846  0A42                     l1916:
  5847  0A42  3001               	movlw	1
  5848  0A43                     u1955:
  5849  0A43  1003               	clrc
  5850  0A44  0DF6               	rlf	___awdiv@divisor,f
  5851  0A45  0DF7               	rlf	___awdiv@divisor+1,f
  5852  0A46  3EFF               	addlw	-1
  5853  0A47  1D03               	skipz
  5854  0A48  2A43               	goto	u1955
  5855  0A49                     l1918:
  5856  0A49  3001               	movlw	1
  5857  0A4A  00FA               	movwf	??___awdiv
  5858  0A4B  087A               	movf	??___awdiv,w
  5859  0A4C  07A0               	addwf	___awdiv@counter,f
  5860  0A4D                     l1920:
  5861  0A4D  1FF7               	btfss	___awdiv@divisor+1,7
  5862  0A4E  2A50               	goto	u1961
  5863  0A4F  2A51               	goto	u1960
  5864  0A50                     u1961:
  5865  0A50  2A42               	goto	l1916
  5866  0A51                     u1960:
  5867  0A51                     l1922:
  5868  0A51  3001               	movlw	1
  5869  0A52                     u1975:
  5870  0A52  1003               	clrc
  5871  0A53  0DA2               	rlf	___awdiv@quotient,f
  5872  0A54  0DA3               	rlf	___awdiv@quotient+1,f
  5873  0A55  3EFF               	addlw	-1
  5874  0A56  1D03               	skipz
  5875  0A57  2A52               	goto	u1975
  5876  0A58  0877               	movf	___awdiv@divisor+1,w
  5877  0A59  0279               	subwf	___awdiv@dividend+1,w
  5878  0A5A  1D03               	skipz
  5879  0A5B  2A5E               	goto	u1985
  5880  0A5C  0876               	movf	___awdiv@divisor,w
  5881  0A5D  0278               	subwf	___awdiv@dividend,w
  5882  0A5E                     u1985:
  5883  0A5E  1C03               	skipc
  5884  0A5F  2A61               	goto	u1981
  5885  0A60  2A62               	goto	u1980
  5886  0A61                     u1981:
  5887  0A61  2A69               	goto	l1928
  5888  0A62                     u1980:
  5889  0A62                     l1924:
  5890  0A62  0876               	movf	___awdiv@divisor,w
  5891  0A63  02F8               	subwf	___awdiv@dividend,f
  5892  0A64  0877               	movf	___awdiv@divisor+1,w
  5893  0A65  1C03               	skipc
  5894  0A66  03F9               	decf	___awdiv@dividend+1,f
  5895  0A67  02F9               	subwf	___awdiv@dividend+1,f
  5896  0A68                     l1926:
  5897  0A68  1422               	bsf	___awdiv@quotient,0
  5898  0A69                     l1928:
  5899  0A69  3001               	movlw	1
  5900  0A6A                     u1995:
  5901  0A6A  1003               	clrc
  5902  0A6B  0CF7               	rrf	___awdiv@divisor+1,f
  5903  0A6C  0CF6               	rrf	___awdiv@divisor,f
  5904  0A6D  3EFF               	addlw	-1
  5905  0A6E  1D03               	skipz
  5906  0A6F  2A6A               	goto	u1995
  5907  0A70                     l1930:
  5908  0A70  3001               	movlw	1
  5909  0A71  02A0               	subwf	___awdiv@counter,f
  5910  0A72  1D03               	btfss	3,2
  5911  0A73  2A75               	goto	u2001
  5912  0A74  2A76               	goto	u2000
  5913  0A75                     u2001:
  5914  0A75  2A51               	goto	l1922
  5915  0A76                     u2000:
  5916  0A76                     l1932:
  5917  0A76  0821               	movf	___awdiv@sign,w
  5918  0A77  1903               	btfsc	3,2
  5919  0A78  2A7A               	goto	u2011
  5920  0A79  2A7B               	goto	u2010
  5921  0A7A                     u2011:
  5922  0A7A  2A80               	goto	l1936
  5923  0A7B                     u2010:
  5924  0A7B                     l1934:
  5925  0A7B  09A2               	comf	___awdiv@quotient,f
  5926  0A7C  09A3               	comf	___awdiv@quotient+1,f
  5927  0A7D  0AA2               	incf	___awdiv@quotient,f
  5928  0A7E  1903               	skipnz
  5929  0A7F  0AA3               	incf	___awdiv@quotient+1,f
  5930  0A80                     l1936:
  5931  0A80  0823               	movf	___awdiv@quotient+1,w
  5932  0A81  00F7               	movwf	?___awdiv+1
  5933  0A82  0822               	movf	___awdiv@quotient,w
  5934  0A83  00F6               	movwf	?___awdiv
  5935  0A84                     l405:
  5936  0A84  0008               	return
  5937  0A85                     __end_of___awdiv:
  5938                           
  5939                           	psect	text14
  5940  0876                     __ptext14:	
  5941 ;; *************** function _LCD_XY *****************
  5942 ;; Defined at:
  5943 ;;		line 59 in file "LCD.c"
  5944 ;; Parameters:    Size  Location     Type
  5945 ;;  x               1    wreg     unsigned char 
  5946 ;;  y               1    2[COMMON] unsigned char 
  5947 ;; Auto vars:     Size  Location     Type
  5948 ;;  x               1    3[COMMON] unsigned char 
  5949 ;; Return value:  Size  Location     Type
  5950 ;;                  1    wreg      void 
  5951 ;; Registers used:
  5952 ;;		wreg, status,2, status,0, pclath, cstack
  5953 ;; Tracked objects:
  5954 ;;		On entry : 0/0
  5955 ;;		On exit  : 0/0
  5956 ;;		Unchanged: 0/0
  5957 ;; Data sizes:     COMMON   BANK0   BANK1   BANK3   BANK2
  5958 ;;      Params:         1       0       0       0       0
  5959 ;;      Locals:         1       0       0       0       0
  5960 ;;      Temps:          0       0       0       0       0
  5961 ;;      Totals:         2       0       0       0       0
  5962 ;;Total ram usage:        2 bytes
  5963 ;; Hardware stack levels used:    1
  5964 ;; Hardware stack levels required when called:    1
  5965 ;; This function calls:
  5966 ;;		_LCD_comando
  5967 ;; This function is called by:
  5968 ;;		_main
  5969 ;; This function uses a non-reentrant model
  5970 ;;
  5971                           
  5972                           
  5973                           ;psect for function _LCD_XY
  5974  0876                     _LCD_XY:
  5975                           
  5976                           ;incstack = 0
  5977                           ; Regs used in _LCD_XY: [wreg+status,2+status,0+pclath+cstack]
  5978                           ;LCD_XY@x stored from wreg
  5979  0876  00F3               	movwf	LCD_XY@x
  5980  0877                     l1852:
  5981                           
  5982                           ;LCD.c: 60:     if(x>0){
  5983  0877  0873               	movf	LCD_XY@x,w
  5984  0878  1903               	btfsc	3,2
  5985  0879  287B               	goto	u1841
  5986  087A  287C               	goto	u1840
  5987  087B                     u1841:
  5988  087B  2884               	goto	l1856
  5989  087C                     u1840:
  5990  087C                     l1854:
  5991                           
  5992                           ;LCD.c: 61:         LCD_comando(0xC0 + y);
  5993  087C  0872               	movf	LCD_XY@y,w
  5994  087D  3EC0               	addlw	192
  5995  087E  120A  158A  208C  120A  158A  	fcall	_LCD_comando
  5996                           
  5997                           ;LCD.c: 62:     }
  5998  0883  288B               	goto	l157
  5999  0884                     l1856:
  6000                           
  6001                           ;LCD.c: 64:         LCD_comando(0x80 + y);
  6002  0884  0872               	movf	LCD_XY@y,w
  6003  0885  3E80               	addlw	128
  6004  0886  120A  158A  208C  120A  158A  	fcall	_LCD_comando
  6005  088B                     l157:
  6006  088B  0008               	return
  6007  088C                     __end_of_LCD_XY:
  6008                           
  6009                           	psect	text15
  6010  088C                     __ptext15:	
  6011 ;; *************** function _LCD_comando *****************
  6012 ;; Defined at:
  6013 ;;		line 47 in file "LCD.c"
  6014 ;; Parameters:    Size  Location     Type
  6015 ;;  dato            1    wreg     unsigned char 
  6016 ;; Auto vars:     Size  Location     Type
  6017 ;;  dato            1    1[COMMON] unsigned char 
  6018 ;; Return value:  Size  Location     Type
  6019 ;;                  1    wreg      void 
  6020 ;; Registers used:
  6021 ;;		wreg
  6022 ;; Tracked objects:
  6023 ;;		On entry : 0/0
  6024 ;;		On exit  : 0/0
  6025 ;;		Unchanged: 0/0
  6026 ;; Data sizes:     COMMON   BANK0   BANK1   BANK3   BANK2
  6027 ;;      Params:         0       0       0       0       0
  6028 ;;      Locals:         1       0       0       0       0
  6029 ;;      Temps:          1       0       0       0       0
  6030 ;;      Totals:         2       0       0       0       0
  6031 ;;Total ram usage:        2 bytes
  6032 ;; Hardware stack levels used:    1
  6033 ;; This function calls:
  6034 ;;		Nothing
  6035 ;; This function is called by:
  6036 ;;		_LCD_Init
  6037 ;;		_LCD_XY
  6038 ;; This function uses a non-reentrant model
  6039 ;;
  6040                           
  6041                           
  6042                           ;psect for function _LCD_comando
  6043  088C                     _LCD_comando:
  6044                           
  6045                           ;incstack = 0
  6046                           ; Regs used in _LCD_comando: [wreg]
  6047                           ;LCD_comando@dato stored from wreg
  6048  088C  00F1               	movwf	LCD_comando@dato
  6049  088D                     l1680:
  6050                           
  6051                           ;LCD.c: 48:     PORTD = dato;
  6052  088D  0871               	movf	LCD_comando@dato,w
  6053  088E  1283               	bcf	3,5	;RP0=0, select bank0
  6054  088F  1303               	bcf	3,6	;RP1=0, select bank0
  6055  0890  0088               	movwf	8	;volatile
  6056  0891                     l1682:
  6057                           
  6058                           ;LCD.c: 49:     PORTCbits.RC5 = 0;
  6059  0891  1287               	bcf	7,5	;volatile
  6060  0892                     l1684:
  6061                           
  6062                           ;LCD.c: 50:     PORTCbits.RC6 = 0;
  6063  0892  1307               	bcf	7,6	;volatile
  6064                           
  6065                           ;LCD.c: 51:     _delay((unsigned long)((10)*(8000000/4000000.0)));
  6066  0893  3006               	movlw	6
  6067  0894  00F0               	movwf	??_LCD_comando
  6068  0895                     u3527:
  6069  0895  0BF0               	decfsz	??_LCD_comando,f
  6070  0896  2895               	goto	u3527
  6071  0897  0000               	nop
  6072  0898                     l1686:
  6073                           
  6074                           ;LCD.c: 52:     PORTCbits.RC7 = 1;
  6075  0898  1283               	bcf	3,5	;RP0=0, select bank0
  6076  0899  1303               	bcf	3,6	;RP1=0, select bank0
  6077  089A  1787               	bsf	7,7	;volatile
  6078                           
  6079                           ;LCD.c: 53:     _delay((unsigned long)((10)*(8000000/4000000.0)));
  6080  089B  3006               	movlw	6
  6081  089C  00F0               	movwf	??_LCD_comando
  6082  089D                     u3537:
  6083  089D  0BF0               	decfsz	??_LCD_comando,f
  6084  089E  289D               	goto	u3537
  6085  089F  0000               	nop
  6086  08A0                     l1688:
  6087                           
  6088                           ;LCD.c: 54:     PORTCbits.RC7 = 0;
  6089  08A0  1283               	bcf	3,5	;RP0=0, select bank0
  6090  08A1  1303               	bcf	3,6	;RP1=0, select bank0
  6091  08A2  1387               	bcf	7,7	;volatile
  6092  08A3                     l152:
  6093  08A3  0008               	return
  6094  08A4                     __end_of_LCD_comando:
  6095                           
  6096                           	psect	text16
  6097  08A4                     __ptext16:	
  6098 ;; *************** function _LCD_Cadena *****************
  6099 ;; Defined at:
  6100 ;;		line 68 in file "LCD.c"
  6101 ;; Parameters:    Size  Location     Type
  6102 ;;  dato            1    wreg     PTR const unsigned char 
  6103 ;;		 -> STR_1(16), 
  6104 ;; Auto vars:     Size  Location     Type
  6105 ;;  dato            1    3[COMMON] PTR const unsigned char 
  6106 ;;		 -> STR_1(16), 
  6107 ;; Return value:  Size  Location     Type
  6108 ;;                  1    wreg      void 
  6109 ;; Registers used:
  6110 ;;		wreg, fsr0l, fsr0h, status,2, status,0, pclath, cstack
  6111 ;; Tracked objects:
  6112 ;;		On entry : 0/0
  6113 ;;		On exit  : 0/0
  6114 ;;		Unchanged: 0/0
  6115 ;; Data sizes:     COMMON   BANK0   BANK1   BANK3   BANK2
  6116 ;;      Params:         0       0       0       0       0
  6117 ;;      Locals:         1       0       0       0       0
  6118 ;;      Temps:          1       0       0       0       0
  6119 ;;      Totals:         2       0       0       0       0
  6120 ;;Total ram usage:        2 bytes
  6121 ;; Hardware stack levels used:    1
  6122 ;; Hardware stack levels required when called:    1
  6123 ;; This function calls:
  6124 ;;		_LCD_Data
  6125 ;; This function is called by:
  6126 ;;		_main
  6127 ;; This function uses a non-reentrant model
  6128 ;;
  6129                           
  6130                           
  6131                           ;psect for function _LCD_Cadena
  6132  08A4                     _LCD_Cadena:
  6133                           
  6134                           ;incstack = 0
  6135                           ; Regs used in _LCD_Cadena: [wreg-fsr0h+status,2+status,0+pclath+cstack]
  6136                           ;LCD_Cadena@dato stored from wreg
  6137  08A4  00F3               	movwf	LCD_Cadena@dato
  6138  08A5                     l1858:
  6139                           
  6140                           ;LCD.c: 69:     while(*dato){
  6141  08A5  28BB               	goto	l1866
  6142  08A6                     l1860:
  6143                           
  6144                           ;LCD.c: 70:         _delay((unsigned long)((100)*(8000000/4000000.0)));
  6145  08A6  3042               	movlw	66
  6146  08A7  00F2               	movwf	??_LCD_Cadena
  6147  08A8                     u3547:
  6148  08A8  0BF2               	decfsz	??_LCD_Cadena,f
  6149  08A9  28A8               	goto	u3547
  6150  08AA  0000               	nop
  6151  08AB                     l1862:
  6152                           
  6153                           ;LCD.c: 71:         LCD_Data(*dato);
  6154  08AB  0873               	movf	LCD_Cadena@dato,w
  6155  08AC  0084               	movwf	4
  6156  08AD  120A  158A  2000  120A  158A  	fcall	stringdir
  6157  08B2  120A  118A  2006  120A  158A  	fcall	_LCD_Data
  6158  08B7                     l1864:
  6159                           
  6160                           ;LCD.c: 72:         dato++;
  6161  08B7  3001               	movlw	1
  6162  08B8  00F2               	movwf	??_LCD_Cadena
  6163  08B9  0872               	movf	??_LCD_Cadena,w
  6164  08BA  07F3               	addwf	LCD_Cadena@dato,f
  6165  08BB                     l1866:
  6166                           
  6167                           ;LCD.c: 69:     while(*dato){
  6168  08BB  0873               	movf	LCD_Cadena@dato,w
  6169  08BC  0084               	movwf	4
  6170  08BD  120A  158A  2000  120A  158A  	fcall	stringdir
  6171  08C2  3A00               	xorlw	0
  6172  08C3  1D03               	skipz
  6173  08C4  28C6               	goto	u1851
  6174  08C5  28C7               	goto	u1850
  6175  08C6                     u1851:
  6176  08C6  28A6               	goto	l1860
  6177  08C7                     u1850:
  6178  08C7                     l163:
  6179  08C7  0008               	return
  6180  08C8                     __end_of_LCD_Cadena:
  6181                           
  6182                           	psect	text17
  6183  0006                     __ptext17:	
  6184 ;; *************** function _LCD_Data *****************
  6185 ;; Defined at:
  6186 ;;		line 76 in file "LCD.c"
  6187 ;; Parameters:    Size  Location     Type
  6188 ;;  data            1    wreg     unsigned char 
  6189 ;; Auto vars:     Size  Location     Type
  6190 ;;  data            1    1[COMMON] unsigned char 
  6191 ;; Return value:  Size  Location     Type
  6192 ;;                  1    wreg      void 
  6193 ;; Registers used:
  6194 ;;		wreg
  6195 ;; Tracked objects:
  6196 ;;		On entry : 0/0
  6197 ;;		On exit  : 0/0
  6198 ;;		Unchanged: 0/0
  6199 ;; Data sizes:     COMMON   BANK0   BANK1   BANK3   BANK2
  6200 ;;      Params:         0       0       0       0       0
  6201 ;;      Locals:         1       0       0       0       0
  6202 ;;      Temps:          1       0       0       0       0
  6203 ;;      Totals:         2       0       0       0       0
  6204 ;;Total ram usage:        2 bytes
  6205 ;; Hardware stack levels used:    1
  6206 ;; This function calls:
  6207 ;;		Nothing
  6208 ;; This function is called by:
  6209 ;;		_main
  6210 ;;		_LCD_Cadena
  6211 ;; This function uses a non-reentrant model
  6212 ;;
  6213                           
  6214                           
  6215                           ;psect for function _LCD_Data
  6216  0006                     _LCD_Data:
  6217                           
  6218                           ;incstack = 0
  6219                           ; Regs used in _LCD_Data: [wreg]
  6220                           ;LCD_Data@data stored from wreg
  6221  0006  00F1               	movwf	LCD_Data@data
  6222  0007                     l1732:
  6223                           
  6224                           ;LCD.c: 77:     _delay((unsigned long)((100)*(8000000/4000000.0)));
  6225  0007  3042               	movlw	66
  6226  0008  00F0               	movwf	??_LCD_Data
  6227  0009                     u3557:
  6228  0009  0BF0               	decfsz	??_LCD_Data,f
  6229  000A  2809               	goto	u3557
  6230  000B  0000               	nop
  6231                           
  6232                           ;LCD.c: 79:     PORTD = data;
  6233  000C  0871               	movf	LCD_Data@data,w
  6234  000D  1283               	bcf	3,5	;RP0=0, select bank0
  6235  000E  1303               	bcf	3,6	;RP1=0, select bank0
  6236  000F  0088               	movwf	8	;volatile
  6237  0010                     l1734:
  6238                           
  6239                           ;LCD.c: 81:     PORTCbits.RC6 = 0;
  6240  0010  1307               	bcf	7,6	;volatile
  6241  0011                     l1736:
  6242                           
  6243                           ;LCD.c: 82:     PORTCbits.RC5 = 1;
  6244  0011  1687               	bsf	7,5	;volatile
  6245                           
  6246                           ;LCD.c: 83:     _delay((unsigned long)((10)*(8000000/4000000.0)));
  6247  0012  3006               	movlw	6
  6248  0013  00F0               	movwf	??_LCD_Data
  6249  0014                     u3567:
  6250  0014  0BF0               	decfsz	??_LCD_Data,f
  6251  0015  2814               	goto	u3567
  6252  0016  0000               	nop
  6253  0017                     l1738:
  6254                           
  6255                           ;LCD.c: 84:     PORTCbits.RC7 = 1;
  6256  0017  1283               	bcf	3,5	;RP0=0, select bank0
  6257  0018  1303               	bcf	3,6	;RP1=0, select bank0
  6258  0019  1787               	bsf	7,7	;volatile
  6259                           
  6260                           ;LCD.c: 85:     _delay((unsigned long)((10)*(8000000/4000000.0)));
  6261  001A  3006               	movlw	6
  6262  001B  00F0               	movwf	??_LCD_Data
  6263  001C                     u3577:
  6264  001C  0BF0               	decfsz	??_LCD_Data,f
  6265  001D  281C               	goto	u3577
  6266  001E  0000               	nop
  6267  001F                     l1740:
  6268                           
  6269                           ;LCD.c: 86:     PORTCbits.RC7 = 0;
  6270  001F  1283               	bcf	3,5	;RP0=0, select bank0
  6271  0020  1303               	bcf	3,6	;RP1=0, select bank0
  6272  0021  1387               	bcf	7,7	;volatile
  6273  0022                     l166:
  6274  0022  0008               	return
  6275  0023                     __end_of_LCD_Data:
  6276                           
  6277                           	psect	text18
  6278  084A                     __ptext18:	
  6279 ;; *************** function _I2C_Master_Write *****************
  6280 ;; Defined at:
  6281 ;;		line 63 in file "I2C.c"
  6282 ;; Parameters:    Size  Location     Type
  6283 ;;  d               2    0[COMMON] unsigned int 
  6284 ;; Auto vars:     Size  Location     Type
  6285 ;;		None
  6286 ;; Return value:  Size  Location     Type
  6287 ;;                  1    wreg      void 
  6288 ;; Registers used:
  6289 ;;		wreg, status,2, status,0, pclath, cstack
  6290 ;; Tracked objects:
  6291 ;;		On entry : 0/0
  6292 ;;		On exit  : 0/0
  6293 ;;		Unchanged: 0/0
  6294 ;; Data sizes:     COMMON   BANK0   BANK1   BANK3   BANK2
  6295 ;;      Params:         2       0       0       0       0
  6296 ;;      Locals:         0       0       0       0       0
  6297 ;;      Temps:          0       0       0       0       0
  6298 ;;      Totals:         2       0       0       0       0
  6299 ;;Total ram usage:        2 bytes
  6300 ;; Hardware stack levels used:    1
  6301 ;; Hardware stack levels required when called:    1
  6302 ;; This function calls:
  6303 ;;		_I2C_Master_Wait
  6304 ;; This function is called by:
  6305 ;;		_main
  6306 ;; This function uses a non-reentrant model
  6307 ;;
  6308                           
  6309                           
  6310                           ;psect for function _I2C_Master_Write
  6311  084A                     _I2C_Master_Write:
  6312  084A                     l1818:	
  6313                           ;incstack = 0
  6314                           ; Regs used in _I2C_Master_Write: [wreg+status,2+status,0+pclath+cstack]
  6315                           
  6316                           
  6317                           ;I2C.c: 63: void I2C_Master_Write(unsigned d);I2C.c: 64: {;I2C.c: 65:     I2C_Master_Wai
      +                          t();
  6318  084A  120A  158A  2054  120A  158A  	fcall	_I2C_Master_Wait
  6319  084F                     l1820:
  6320                           
  6321                           ;I2C.c: 66:     SSPBUF = d;
  6322  084F  0870               	movf	I2C_Master_Write@d,w
  6323  0850  1283               	bcf	3,5	;RP0=0, select bank0
  6324  0851  1303               	bcf	3,6	;RP1=0, select bank0
  6325  0852  0093               	movwf	19	;volatile
  6326  0853                     l47:
  6327  0853  0008               	return
  6328  0854                     __end_of_I2C_Master_Write:
  6329                           
  6330                           	psect	text19
  6331  0841                     __ptext19:	
  6332 ;; *************** function _I2C_Master_Stop *****************
  6333 ;; Defined at:
  6334 ;;		line 53 in file "I2C.c"
  6335 ;; Parameters:    Size  Location     Type
  6336 ;;		None
  6337 ;; Auto vars:     Size  Location     Type
  6338 ;;		None
  6339 ;; Return value:  Size  Location     Type
  6340 ;;                  1    wreg      void 
  6341 ;; Registers used:
  6342 ;;		wreg, status,2, status,0, pclath, cstack
  6343 ;; Tracked objects:
  6344 ;;		On entry : 0/0
  6345 ;;		On exit  : 0/0
  6346 ;;		Unchanged: 0/0
  6347 ;; Data sizes:     COMMON   BANK0   BANK1   BANK3   BANK2
  6348 ;;      Params:         0       0       0       0       0
  6349 ;;      Locals:         0       0       0       0       0
  6350 ;;      Temps:          0       0       0       0       0
  6351 ;;      Totals:         0       0       0       0       0
  6352 ;;Total ram usage:        0 bytes
  6353 ;; Hardware stack levels used:    1
  6354 ;; Hardware stack levels required when called:    1
  6355 ;; This function calls:
  6356 ;;		_I2C_Master_Wait
  6357 ;; This function is called by:
  6358 ;;		_main
  6359 ;; This function uses a non-reentrant model
  6360 ;;
  6361                           
  6362                           
  6363                           ;psect for function _I2C_Master_Stop
  6364  0841                     _I2C_Master_Stop:
  6365  0841                     l1814:	
  6366                           ;incstack = 0
  6367                           ; Regs used in _I2C_Master_Stop: [wreg+status,2+status,0+pclath+cstack]
  6368                           
  6369                           
  6370                           ;I2C.c: 55:     I2C_Master_Wait();
  6371  0841  120A  158A  2054  120A  158A  	fcall	_I2C_Master_Wait
  6372  0846                     l1816:
  6373                           
  6374                           ;I2C.c: 56:     SSPCON2bits.PEN = 1;
  6375  0846  1683               	bsf	3,5	;RP0=1, select bank1
  6376  0847  1303               	bcf	3,6	;RP1=0, select bank1
  6377  0848  1511               	bsf	17,2	;volatile
  6378  0849                     l44:
  6379  0849  0008               	return
  6380  084A                     __end_of_I2C_Master_Stop:
  6381                           
  6382                           	psect	text20
  6383  0838                     __ptext20:	
  6384 ;; *************** function _I2C_Master_Start *****************
  6385 ;; Defined at:
  6386 ;;		line 37 in file "I2C.c"
  6387 ;; Parameters:    Size  Location     Type
  6388 ;;		None
  6389 ;; Auto vars:     Size  Location     Type
  6390 ;;		None
  6391 ;; Return value:  Size  Location     Type
  6392 ;;                  1    wreg      void 
  6393 ;; Registers used:
  6394 ;;		wreg, status,2, status,0, pclath, cstack
  6395 ;; Tracked objects:
  6396 ;;		On entry : 0/0
  6397 ;;		On exit  : 0/0
  6398 ;;		Unchanged: 0/0
  6399 ;; Data sizes:     COMMON   BANK0   BANK1   BANK3   BANK2
  6400 ;;      Params:         0       0       0       0       0
  6401 ;;      Locals:         0       0       0       0       0
  6402 ;;      Temps:          0       0       0       0       0
  6403 ;;      Totals:         0       0       0       0       0
  6404 ;;Total ram usage:        0 bytes
  6405 ;; Hardware stack levels used:    1
  6406 ;; Hardware stack levels required when called:    1
  6407 ;; This function calls:
  6408 ;;		_I2C_Master_Wait
  6409 ;; This function is called by:
  6410 ;;		_main
  6411 ;; This function uses a non-reentrant model
  6412 ;;
  6413                           
  6414                           
  6415                           ;psect for function _I2C_Master_Start
  6416  0838                     _I2C_Master_Start:
  6417  0838                     l1810:	
  6418                           ;incstack = 0
  6419                           ; Regs used in _I2C_Master_Start: [wreg+status,2+status,0+pclath+cstack]
  6420                           
  6421                           
  6422                           ;I2C.c: 39:     I2C_Master_Wait();
  6423  0838  120A  158A  2054  120A  158A  	fcall	_I2C_Master_Wait
  6424  083D                     l1812:
  6425                           
  6426                           ;I2C.c: 40:     SSPCON2bits.SEN = 1;
  6427  083D  1683               	bsf	3,5	;RP0=1, select bank1
  6428  083E  1303               	bcf	3,6	;RP1=0, select bank1
  6429  083F  1411               	bsf	17,0	;volatile
  6430  0840                     l38:
  6431  0840  0008               	return
  6432  0841                     __end_of_I2C_Master_Start:
  6433                           
  6434                           	psect	text21
  6435  0914                     __ptext21:	
  6436 ;; *************** function _I2C_Master_Read *****************
  6437 ;; Defined at:
  6438 ;;		line 72 in file "I2C.c"
  6439 ;; Parameters:    Size  Location     Type
  6440 ;;  a               2    0[COMMON] unsigned short 
  6441 ;; Auto vars:     Size  Location     Type
  6442 ;;  temp            2    4[COMMON] unsigned short 
  6443 ;; Return value:  Size  Location     Type
  6444 ;;                  2    0[COMMON] unsigned short 
  6445 ;; Registers used:
  6446 ;;		wreg, status,2, status,0, pclath, cstack
  6447 ;; Tracked objects:
  6448 ;;		On entry : 0/0
  6449 ;;		On exit  : 0/0
  6450 ;;		Unchanged: 0/0
  6451 ;; Data sizes:     COMMON   BANK0   BANK1   BANK3   BANK2
  6452 ;;      Params:         2       0       0       0       0
  6453 ;;      Locals:         2       0       0       0       0
  6454 ;;      Temps:          2       0       0       0       0
  6455 ;;      Totals:         6       0       0       0       0
  6456 ;;Total ram usage:        6 bytes
  6457 ;; Hardware stack levels used:    1
  6458 ;; Hardware stack levels required when called:    1
  6459 ;; This function calls:
  6460 ;;		_I2C_Master_Wait
  6461 ;; This function is called by:
  6462 ;;		_main
  6463 ;; This function uses a non-reentrant model
  6464 ;;
  6465                           
  6466                           
  6467                           ;psect for function _I2C_Master_Read
  6468  0914                     _I2C_Master_Read:
  6469  0914                     l1822:	
  6470                           ;incstack = 0
  6471                           ; Regs used in _I2C_Master_Read: [wreg+status,2+status,0+pclath+cstack]
  6472                           
  6473                           
  6474                           ;I2C.c: 72: unsigned short I2C_Master_Read(unsigned short a);I2C.c: 73: {;I2C.c: 74:    
      +                           unsigned short temp;;I2C.c: 75:     I2C_Master_Wait();
  6475  0914  120A  158A  2054  120A  158A  	fcall	_I2C_Master_Wait
  6476  0919                     l1824:
  6477                           
  6478                           ;I2C.c: 76:     SSPCON2bits.RCEN = 1;
  6479  0919  1683               	bsf	3,5	;RP0=1, select bank1
  6480  091A  1303               	bcf	3,6	;RP1=0, select bank1
  6481  091B  1591               	bsf	17,3	;volatile
  6482                           
  6483                           ;I2C.c: 77:     I2C_Master_Wait();
  6484  091C  120A  158A  2054  120A  158A  	fcall	_I2C_Master_Wait
  6485  0921                     l1826:
  6486                           
  6487                           ;I2C.c: 78:     temp = SSPBUF;
  6488  0921  1283               	bcf	3,5	;RP0=0, select bank0
  6489  0922  1303               	bcf	3,6	;RP1=0, select bank0
  6490  0923  0813               	movf	19,w	;volatile
  6491  0924  00F2               	movwf	??_I2C_Master_Read
  6492  0925  01F3               	clrf	??_I2C_Master_Read+1
  6493  0926  0872               	movf	??_I2C_Master_Read,w
  6494  0927  00F4               	movwf	I2C_Master_Read@temp
  6495  0928  0873               	movf	??_I2C_Master_Read+1,w
  6496  0929  00F5               	movwf	I2C_Master_Read@temp+1
  6497  092A                     l1828:
  6498                           
  6499                           ;I2C.c: 79:     I2C_Master_Wait();
  6500  092A  120A  158A  2054  120A  158A  	fcall	_I2C_Master_Wait
  6501  092F                     l1830:
  6502                           
  6503                           ;I2C.c: 80:     if(a == 1){
  6504  092F  0370               	decf	I2C_Master_Read@a,w
  6505  0930  0471               	iorwf	I2C_Master_Read@a+1,w
  6506  0931  1D03               	btfss	3,2
  6507  0932  2934               	goto	u1831
  6508  0933  2935               	goto	u1830
  6509  0934                     u1831:
  6510  0934  2939               	goto	l50
  6511  0935                     u1830:
  6512  0935                     l1832:
  6513                           
  6514                           ;I2C.c: 81:         SSPCON2bits.ACKDT = 0;
  6515  0935  1683               	bsf	3,5	;RP0=1, select bank1
  6516  0936  1303               	bcf	3,6	;RP1=0, select bank1
  6517  0937  1291               	bcf	17,5	;volatile
  6518                           
  6519                           ;I2C.c: 82:     }else{
  6520  0938  293C               	goto	l51
  6521  0939                     l50:
  6522                           
  6523                           ;I2C.c: 83:         SSPCON2bits.ACKDT = 1;
  6524  0939  1683               	bsf	3,5	;RP0=1, select bank1
  6525  093A  1303               	bcf	3,6	;RP1=0, select bank1
  6526  093B  1691               	bsf	17,5	;volatile
  6527  093C                     l51:	
  6528                           ;I2C.c: 84:     }
  6529                           
  6530                           
  6531                           ;I2C.c: 85:     SSPCON2bits.ACKEN = 1;
  6532  093C  1611               	bsf	17,4	;volatile
  6533  093D                     l1834:
  6534                           
  6535                           ;I2C.c: 86:     return temp;
  6536  093D  0875               	movf	I2C_Master_Read@temp+1,w
  6537  093E  00F1               	movwf	?_I2C_Master_Read+1
  6538  093F  0874               	movf	I2C_Master_Read@temp,w
  6539  0940  00F0               	movwf	?_I2C_Master_Read
  6540  0941                     l52:
  6541  0941  0008               	return
  6542  0942                     __end_of_I2C_Master_Read:
  6543                           
  6544                           	psect	text22
  6545  0854                     __ptext22:	
  6546 ;; *************** function _I2C_Master_Wait *****************
  6547 ;; Defined at:
  6548 ;;		line 30 in file "I2C.c"
  6549 ;; Parameters:    Size  Location     Type
  6550 ;;		None
  6551 ;; Auto vars:     Size  Location     Type
  6552 ;;		None
  6553 ;; Return value:  Size  Location     Type
  6554 ;;                  1    wreg      void 
  6555 ;; Registers used:
  6556 ;;		wreg, status,2
  6557 ;; Tracked objects:
  6558 ;;		On entry : 0/0
  6559 ;;		On exit  : 0/0
  6560 ;;		Unchanged: 0/0
  6561 ;; Data sizes:     COMMON   BANK0   BANK1   BANK3   BANK2
  6562 ;;      Params:         0       0       0       0       0
  6563 ;;      Locals:         0       0       0       0       0
  6564 ;;      Temps:          0       0       0       0       0
  6565 ;;      Totals:         0       0       0       0       0
  6566 ;;Total ram usage:        0 bytes
  6567 ;; Hardware stack levels used:    1
  6568 ;; This function calls:
  6569 ;;		Nothing
  6570 ;; This function is called by:
  6571 ;;		_I2C_Master_Start
  6572 ;;		_I2C_Master_Stop
  6573 ;;		_I2C_Master_Write
  6574 ;;		_I2C_Master_Read
  6575 ;;		_I2C_Master_RepeatedStart
  6576 ;; This function uses a non-reentrant model
  6577 ;;
  6578                           
  6579                           
  6580                           ;psect for function _I2C_Master_Wait
  6581  0854                     _I2C_Master_Wait:
  6582  0854                     l1728:	
  6583                           ;incstack = 0
  6584                           ; Regs used in _I2C_Master_Wait: [wreg+status,2]
  6585                           
  6586  0854                     l32:	
  6587                           ;I2C.c: 32:     while ((SSPSTAT & 0x04) || (SSPCON2 & 0x1F));
  6588                           
  6589  0854  1683               	bsf	3,5	;RP0=1, select bank1
  6590  0855  1303               	bcf	3,6	;RP1=0, select bank1
  6591  0856  1914               	btfsc	20,2	;volatile
  6592  0857  2859               	goto	u1781
  6593  0858  285A               	goto	u1780
  6594  0859                     u1781:
  6595  0859  2854               	goto	l32
  6596  085A                     u1780:
  6597  085A                     l1730:
  6598  085A  0811               	movf	17,w	;volatile
  6599  085B  391F               	andlw	31
  6600  085C  1D03               	btfss	3,2
  6601  085D  285F               	goto	u1791
  6602  085E  2860               	goto	u1790
  6603  085F                     u1791:
  6604  085F  2854               	goto	l32
  6605  0860                     u1790:
  6606  0860                     l35:
  6607  0860  0008               	return
  6608  0861                     __end_of_I2C_Master_Wait:
  6609  007E                     btemp	set	126	;btemp
  6610  007E                     wtemp0	set	126
  6611                           
  6612                           	psect	config
  6613                           
  6614                           ;Config register CONFIG1 @ 0x2007
  6615                           ;	Oscillator Selection bits
  6616                           ;	FOSC = INTRC_NOCLKOUT, INTOSCIO oscillator: I/O function on RA6/OSC2/CLKOUT pin, I/O f
      +                          unction on RA7/OSC1/CLKIN
  6617                           ;	Watchdog Timer Enable bit
  6618                           ;	WDTE = OFF, WDT disabled and can be enabled by SWDTEN bit of the WDTCON register
  6619                           ;	Power-up Timer Enable bit
  6620                           ;	PWRTE = OFF, PWRT disabled
  6621                           ;	RE3/MCLR pin function select bit
  6622                           ;	MCLRE = OFF, RE3/MCLR pin function is digital input, MCLR internally tied to VDD
  6623                           ;	Code Protection bit
  6624                           ;	CP = OFF, Program memory code protection is disabled
  6625                           ;	Data Code Protection bit
  6626                           ;	CPD = OFF, Data memory code protection is disabled
  6627                           ;	Brown Out Reset Selection bits
  6628                           ;	BOREN = OFF, BOR disabled
  6629                           ;	Internal External Switchover bit
  6630                           ;	IESO = OFF, Internal/External Switchover mode is disabled
  6631                           ;	Fail-Safe Clock Monitor Enabled bit
  6632                           ;	FCMEN = OFF, Fail-Safe Clock Monitor is disabled
  6633                           ;	Low Voltage Programming Enable bit
  6634                           ;	LVP = OFF, RB3 pin has digital I/O, HV on MCLR must be used for programming
  6635                           ;	In-Circuit Debugger Mode bit
  6636                           ;	DEBUG = 0x1, unprogrammed default
  6637  2007                     	org	8199
  6638  2007  20D4               	dw	8404
  6639                           
  6640                           ;Config register CONFIG2 @ 0x2008
  6641                           ;	Brown-out Reset Selection bit
  6642                           ;	BOR4V = BOR40V, Brown-out Reset set to 4.0V
  6643                           ;	Flash Program Memory Self Write Enable bits
  6644                           ;	WRT = OFF, Write protection off
  6645  2008                     	org	8200
  6646  2008  3FFF               	dw	16383

Data Sizes:
    Strings     16
    Constant    0
    Data        0
    BSS         15
    Persistent  0
    Stack       0

Auto Spaces:
    Space          Size  Autos    Used
    COMMON           14     14      14
    BANK0            80     78      80
    BANK1            80      9      22
    BANK3            96      0       0
    BANK2            96      0       0

Pointer List with Targets:

    LCD_Cadena@dato	PTR const unsigned char  size(1) Largest target is 16
		 -> STR_1(CODE[16]), 


Critical Paths under _main in COMMON

    _main->___xxtofl
    _LCD_Init->_LCD_comando
    _I2C_Master_Init->___lldiv
    ___fltol->___xxtofl
    ___flmul->___xxtofl
    ___fldiv->___xxtofl
    ___fladd->___xxtofl
    ___awdiv->___wmul
    _LCD_XY->_LCD_comando
    _LCD_Cadena->_LCD_Data

Critical Paths under _main in BANK0

    _main->___fltol
    _setup->_I2C_Master_Init
    ___fltol->___fladd
    ___fldiv->___flmul
    ___fladd->___fldiv

Critical Paths under _main in BANK1

    _main->___fltol

Critical Paths under _main in BANK3

    None.

Critical Paths under _main in BANK2

    None.

Call Graph Tables:

 ---------------------------------------------------------------------------------
 (Depth) Function   	        Calls       Base Space   Used Autos Params    Refs
 ---------------------------------------------------------------------------------
 (0) _main                                                 4     4      0   11574
                                              5 BANK1      4     4      0
                    _I2C_Master_Read
                   _I2C_Master_Start
                    _I2C_Master_Stop
                   _I2C_Master_Write
                         _LCD_Cadena
                           _LCD_Data
                             _LCD_XY
                            ___awdiv
                             ___bmul
                            ___fladd
                            ___fldiv
                            ___flmul
                            ___fltol
                             ___wmul
                           ___xxtofl
                              _setup
 ---------------------------------------------------------------------------------
 (1) _setup                                                0     0      0     434
                    _I2C_Master_Init
                           _LCD_Init
 ---------------------------------------------------------------------------------
 (2) _LCD_Init                                             2     2      0      22
                                              2 COMMON     2     2      0
                        _LCD_comando
 ---------------------------------------------------------------------------------
 (2) _I2C_Master_Init                                      8     4      4     412
                                              0 BANK0      8     4      4
                            ___lldiv
 ---------------------------------------------------------------------------------
 (3) ___lldiv                                             14     6      8     314
                                              0 COMMON    14     6      8
 ---------------------------------------------------------------------------------
 (1) ___xxtofl                                            14    10      4     550
                                              0 COMMON    14    10      4
 ---------------------------------------------------------------------------------
 (1) ___wmul                                               6     2      4     700
                                              0 COMMON     6     2      4
 ---------------------------------------------------------------------------------
 (1) ___fltol                                             11     7      4     457
                                             72 BANK0      6     2      4
                                              0 BANK1      5     5      0
                            ___fladd (ARG)
                            ___fldiv (ARG)
                            ___flmul (ARG)
                           ___xxtofl (ARG)
 ---------------------------------------------------------------------------------
 (1) ___flmul                                             26    18      8    2721
                                              0 BANK0     26    18      8
                          __Umul8_16
                           ___xxtofl (ARG)
 ---------------------------------------------------------------------------------
 (2) __Umul8_16                                            9     7      2     799
                                              0 COMMON     9     7      2
 ---------------------------------------------------------------------------------
 (1) ___fldiv                                             26    18      8    1273
                                             26 BANK0     26    18      8
                            ___flmul (ARG)
                           ___xxtofl (ARG)
 ---------------------------------------------------------------------------------
 (1) ___fladd                                             20    12      8    2262
                                             52 BANK0     20    12      8
                            ___fldiv (ARG)
                            ___flmul (ARG)
                           ___xxtofl (ARG)
 ---------------------------------------------------------------------------------
 (1) ___bmul                                               4     3      1     548
                                              0 COMMON     4     3      1
 ---------------------------------------------------------------------------------
 (1) ___awdiv                                              9     5      4    1212
                                              6 COMMON     5     1      4
                                              0 BANK0      4     4      0
                             ___wmul (ARG)
 ---------------------------------------------------------------------------------
 (1) _LCD_XY                                               2     1      1     544
                                              2 COMMON     2     1      1
                        _LCD_comando
 ---------------------------------------------------------------------------------
 (3) _LCD_comando                                          2     2      0      22
                                              0 COMMON     2     2      0
 ---------------------------------------------------------------------------------
 (1) _LCD_Cadena                                           2     2      0     100
                                              2 COMMON     2     2      0
                           _LCD_Data
 ---------------------------------------------------------------------------------
 (1) _LCD_Data                                             2     2      0      22
                                              0 COMMON     2     2      0
 ---------------------------------------------------------------------------------
 (1) _I2C_Master_Write                                     2     0      2     402
                                              0 COMMON     2     0      2
                    _I2C_Master_Wait
 ---------------------------------------------------------------------------------
 (1) _I2C_Master_Stop                                      0     0      0       0
                    _I2C_Master_Wait
 ---------------------------------------------------------------------------------
 (1) _I2C_Master_Start                                     0     0      0       0
                    _I2C_Master_Wait
 ---------------------------------------------------------------------------------
 (1) _I2C_Master_Read                                      6     4      2     349
                                              0 COMMON     6     4      2
                    _I2C_Master_Wait
 ---------------------------------------------------------------------------------
 (2) _I2C_Master_Wait                                      0     0      0       0
 ---------------------------------------------------------------------------------
 Estimated maximum stack depth 3
 ---------------------------------------------------------------------------------

 Call Graph Graphs:

 _main (ROOT)
   _I2C_Master_Read
     _I2C_Master_Wait
   _I2C_Master_Start
     _I2C_Master_Wait
   _I2C_Master_Stop
     _I2C_Master_Wait
   _I2C_Master_Write
     _I2C_Master_Wait
   _LCD_Cadena
     _LCD_Data
   _LCD_Data
   _LCD_XY
     _LCD_comando
   ___awdiv
     ___wmul (ARG)
   ___bmul
   ___fladd
     ___fldiv (ARG)
       ___flmul (ARG)
         __Umul8_16
         ___xxtofl (ARG)
       ___xxtofl (ARG)
     ___flmul (ARG)
       __Umul8_16
       ___xxtofl (ARG)
     ___xxtofl (ARG)
   ___fldiv
     ___flmul (ARG)
       __Umul8_16
       ___xxtofl (ARG)
     ___xxtofl (ARG)
   ___flmul
     __Umul8_16
     ___xxtofl (ARG)
   ___fltol
     ___fladd (ARG)
       ___fldiv (ARG)
         ___flmul (ARG)
           __Umul8_16
           ___xxtofl (ARG)
         ___xxtofl (ARG)
       ___flmul (ARG)
         __Umul8_16
         ___xxtofl (ARG)
       ___xxtofl (ARG)
     ___fldiv (ARG)
       ___flmul (ARG)
         __Umul8_16
         ___xxtofl (ARG)
       ___xxtofl (ARG)
     ___flmul (ARG)
       __Umul8_16
       ___xxtofl (ARG)
     ___xxtofl (ARG)
   ___wmul
   ___xxtofl
   _setup
     _I2C_Master_Init
       ___lldiv
     _LCD_Init
       _LCD_comando

 Address spaces:
Name               Size   Autos  Total    Cost      Usage
BITCOMMON            E      0       0       0        0.0%
EEDATA             100      0       0       0        0.0%
NULL                 0      0       0       0        0.0%
CODE                 0      0       0       0        0.0%
COMMON               E      E       E       1      100.0%
BITSFR0              0      0       0       1        0.0%
SFR0                 0      0       0       1        0.0%
BITSFR1              0      0       0       2        0.0%
SFR1                 0      0       0       2        0.0%
STACK                0      0       0       2        0.0%
ABS                  0      0      74       3        0.0%
BITBANK0            50      0       0       4        0.0%
BITSFR3              0      0       0       4        0.0%
SFR3                 0      0       0       4        0.0%
BANK0               50     4E      50       5      100.0%
BITSFR2              0      0       0       5        0.0%
SFR2                 0      0       0       5        0.0%
BITBANK1            50      0       0       6        0.0%
BANK1               50      9      16       7       27.5%
BITBANK3            60      0       0       8        0.0%
BANK3               60      0       0       9        0.0%
BITBANK2            60      0       0      10        0.0%
BANK2               60      0       0      11        0.0%
DATA                 0      0      74      12        0.0%


Microchip Technology PIC Macro Assembler V2.31 build 20201012212115 
Symbol Table                                                                                   Tue Aug 10 10:04:56 2021

             ___fldiv@aexp 0053               ___fldiv@bexp 0052                          pc 0002  
             ___fldiv@sign 004B             ___bmul@product 0072                         l32 0854  
                       l50 0939                         l35 0860                         l51 093C  
                       l52 0941                         l44 0849                         l29 0979  
                       l38 0840                         l47 0853               ___awdiv@sign 0021  
                       fsr 0004        ___wmul@multiplicand 0072        __Umul8_16@word_mpld 0076  
                      l132 09B5                        l124 0443                        l152 08A3  
                      l163 08C7                        l252 08D4                        l157 088B  
                      l405 0A84                        l149 0AFE                        l166 0022  
                      l254 08EC                        _ADC 00A2                        l601 0BF7  
                      l603 0D77                        l445 0B85                        l278 0875  
                      l438 0B9A                        l551 0E59                        l623 0D5B  
                      l448 0B9A                        l288 0A1B                        l545 0DDB  
                      l625 0D6B                        l617 0CE9                        l641 043D  
                      l570 0F71                        l660 0901                        l549 0E82  
                      l653 0431                        l566 0F4D                        l558 0FFF  
                      l662 0913                        l647 03A9                        l576 0F93  
                      l587 0FF3                        l579 0FD1                        l691 008A  
                      l588 0FFF                        l685 0045                        l687 00DC  
                      l698 00A6                        l699 00B2                        _GIE 005F  
                      fsr0 0004               ___flmul@aexp 0032               ___flmul@bexp 0033  
             ___flmul@sign 002D               ___flmul@temp 0038               ___flmul@prod 0034  
             ___fltol@exp1 006D                       l2000 0DB2                       l2010 0DC3  
                     l2002 0DB3                       l2100 0EE7                       l2020 0DE1  
                     l2012 0DC8                       l2004 0DB9                       l2110 0F55  
                     l2102 0F25                       l2030 0DF5                       l2022 0DE5  
                     l2014 0DD0                       l2006 0DBD                       l2120 0F70  
                     l2112 0F5A                       l2104 0F2B                       l2040 0E09  
                     l2032 0DF9                       l2024 0DE9                       l2016 0DD1  
                     l2008 0DBE                       l2200 0BDF                       l2122 0F75  
                     l2130 0F81                       l2106 0F30                       l2050 0E1D  
                     l2042 0E0D                       l2034 0DFD                       l2026 0DED  
                     l2018 0DD3                       l2210 0BFF                       l2202 0BE4  
                     l2124 0F78                       l2116 0F63                       l2108 0F3F  
                     l2132 0F85                       l2060 0E5D                       l2052 0E21  
                     l2044 0E11                       l2036 0E01                       l2028 0DF1  
                     l2300 0D5A                       l2220 0C1D                       l2212 0C0B  
                     l2204 0BEC                       l2150 0FCD                       l2142 0F98  
                     l2134 0F86                       l2126 0F7A                       l2118 0F6C  
                     l2070 0E76                       l2062 0E66                       l2046 0E15  
                     l2038 0E05                       l2054 0E25                       l2302 0D61  
                     l2230 0C48                       l2214 0C0F                       l2206 0BED  
                     l2160 0FE9                       l2152 0FD6                       l2144 0F9D  
                     l2136 0F8A                       l2128 0F7F                       l2080 0E94  
                     l2064 0E68                       l2072 0E7A                       l2056 0E26  
                     l2048 0E19                       l2304 0D65                       l2240 0C6D  
                     l2232 0C50                       l2224 0C26                       l2208 0BEF  
                     l2400 0375                       l2320 00EF                       l2312 00DD  
                     l2162 0FED                       l2154 0FDB                       l2146 0FAB  
                     l2138 0F90                       l2090 0EBE                       l2082 0EAB  
                     l2074 0E86                       l2066 0E6C                       l2058 0E3D  
                     l2306 0D67                       l2250 0C98                       l2242 0C6E  
                     l2234 0C52                       l2226 0C38                       l2218 0C18  
                     l2170 0B9B                       l2410 038D                       l2402 0379  
                     l2330 010B                       l2322 00F4                       l2314 00E4  
                     l2164 0FEF                       l2156 0FE3                       l2148 0FAF  
                     l2092 0EC2                       l2084 0EAF                       l2076 0E8B  
                     l2068 0E6D                       l2260 0CB5                       l2236 0C57  
                     l2244 0C77                       l2252 0C9C                       l2228 0C40  
                     l2180 0BB2                       l2172 0BA2                       l2420 03AE  
                     l2412 038E                       l2404 037A                       l2340 0120  
                     l2332 0110                       l2324 00F9                       l2316 00EA  
                     l1700 09DA                       l2500 043E                       l2166 0FFA  
                     l2158 0FE8                       l2094 0EC3                       l2086 0EB3  
                     l2270 0CCD                       l2262 0CB9                       l2254 0CA2  
                     l2246 0C89                       l2238 0C69                       l2190 0BCA  
                     l2182 0BB7                       l2174 0BA8                       l2422 03B3  
                     l2430 03E4                       l2414 0392                       l2406 0383  
                     l2350 013C                       l2342 0125                       l2334 0116  
                     l2326 0101                       l2318 00EE                       l1710 0A0D  
                     l1702 09E3                       l2510 048F                       l2502 0464  
                     l2168 0FFE                       l2096 0ECC                       l2088 0EBC  
                     l2280 0CEE                       l2272 0CCE                       l2264 0CBA  
                     l2256 0CAA                       l2248 0C8A                       l2192 0BCF  
                     l2184 0BBF                       l2176 0BAC                       l1800 08F7  
                     l2440 0417                       l2432 03F1                       l2424 03C1  
                     l2416 03A6                       l2408 0389                       l2360 0167  
                     l2352 0141                       l2344 012D                       l2336 011A  
                     l2328 0103                       l1704 09F5                       l1712 0A13  
                     l1720 0949                       l2520 04DC                       l2512 0494  
                     l2504 0473                       l1730 085A                       l1810 0838  
                     l2098 0ED1                       l2282 0CF3                       l2290 0D24  
                     l2274 0CD2                       l2266 0CC3                       l2258 0CAC  
                     l2194 0BD5                       l2186 0BC0                       l2178 0BAD  
                     l1802 08FB                       l2442 0425                       l2434 03FC  
                     l2426 03C5                       l2370 0204                       l2362 0184  
                     l2346 012F                       l2338 011B                       l1706 0A03  
                     l1722 0976                       l2530 05C9                       l2522 04F3  
                     l2514 04BF                       l2506 0478                       l1812 083D  
                     l1820 084F                       l1740 001F                       l1732 0007  
                     l1900 0A23                       l2292 0D31                       l2284 0D01  
                     l2276 0CE6                       l2268 0CC9                       l2196 0BD9  
                     l2188 0BC2                       l1804 090A                       l2444 0429  
                     l2436 040B                       l2428 03DE                       l2380 0267  
                     l2372 020D                       l2364 01A0                       l2356 014A  
                     l2348 0137                       l2460 004D                       l2452 0024  
                     l1708 0A04                       l1724 0977                       l1716 0942  
                     l2540 067B                       l2532 060A                       l2524 0503  
                     l2516 04CE                       l2508 0481                       l1830 092F  
                     l1822 0914                       l1814 0841                       l1734 0010  
                     l1910 0A37                       l1902 0A28                       l2294 0D3F  
                     l2286 0D05                       l2198 0BDA                       l1806 090F  
                     l2446 042A                       l2438 0415                       l2390 0307  
                     l2382 0280                       l2374 021D                       l2366 01CC  
                     l2358 015A                       l2470 006F                       l2454 0029  
                     l1726 0978                       l1718 0946                       l1750 0A8D  
                     l2550 0727                       l2542 06A5                       l2534 061E  
                     l2526 051D                       l2518 04D3                       l1728 0854  
                     l1832 0935                       l1824 0919                       l1816 0846  
                     l1736 0011                       l1680 088D                       l1920 0A4D  
                     l1912 0A39                       l1904 0A2A                       l2296 0D4E  
                     l2288 0D1E                       l2448 0435                       l2392 032D  
                     l2384 029D                       l2376 023A                       l2368 01E8  
                     l2480 00A0                       l2472 0073                       l2464 0056  
                     l2456 002D                       l1760 0A9C                       l1752 0A8E  
                     l1744 0A85                       l1840 0988                       l2560 0749  
                     l2552 072E                       l2544 06C4                       l2536 0648  
                     l2528 0586                       l1834 093D                       l1826 0921  
                     l1818 084A                       l1738 0017                       l1682 0891  
                     l1930 0A70                       l1922 0A51                       l1914 0A3F  
                     l1906 0A2E                       l2298 0D52                       l2394 0355  
                     l2386 02CA                       l2378 024A                       l2490 00D3  
                     l2482 00AA                       l2474 0081                       l2466 005B  
                     l2458 003D                       l1770 0ABC                       l1762 0AA2  
                     l1754 0A91                       l1746 0A8B                       l1850 09A6  
                     l1842 098B                       l2570 0773                       l2562 0751  
                     l2554 0734                       l2546 06DA                       l2538 0667  
                     l1828 092A                       l1860 08A6                       l1684 0892  
                     l1852 0877                       l1924 0A62                       l1916 0A42  
                     l1932 0A76                       l1908 0A33                       l2396 035E  
                     l2388 02DA                       l1940 0AFF                       l2492 00D4  
                     l2484 00B4                       l2476 0091                       l2468 0068  
                     l1692 09B6                       l1780 0AD7                       l1772 0AC1  
                     l1764 0AAB                       l1756 0A92                       l1748 0A8C  
                     l1844 098C                       l2580 079F                       l2572 077B  
                     l2564 0759                       l2556 073B                       l2548 0704  
                     l1862 08AB                       l1686 0898                       l1854 087C  
                     l1934 0A7B                       l1926 0A68                       l1918 0A49  
                     l2398 036C                       l1950 0B3F                       l1942 0B10  
                     l1870 08CA                       l2486 00CA                       l2478 009C  
                     l1694 09C6                       l1790 0AF2                       l1782 0ADD  
                     l1774 0AC7                       l1766 0AB1                       l1758 0A93  
                     l1846 098D                       l1838 097A                       l2582 07A7  
                     l2574 0783                       l2566 0765                       l2558 0743  
                     l1864 08B7                       l1688 08A0                       l1856 0884  
                     l1936 0A80                       l1928 0A69                       l1952 0B47  
                     l1872 08CE                       l2488 00CF                       l1696 09C9  
                     l1792 0AF8                       l1784 0AE2                       l1776 0ACC  
                     l1768 0AB6                       l1848 09A1                       l2584 07AD  
                     l2576 078F                       l2568 076D                       l1866 08BB  
                     l1858 08A5                       l1890 086D                       l1882 0862  
                     l1970 0B72                       l1962 0B55                       l1954 0B49  
                     l1946 0B19                       l1874 08DB                       l1698 09D6  
                     l1786 0AE8                       l1778 0AD2                       l2586 07D3  
                     l2578 0797                       l1892 0874                       l1884 0863  
                     l1980 0D85                       l1796 08EE                       l1972 0B8A  
                     l1956 0B4D                       l1964 0B6B                       l1948 0B3E  
                     l1876 08E2                       l1868 08C8                       l1788 0AED  
                     l1886 0867                       l1990 0D9C                       l1982 0D89  
                     l1798 08F0                       l1974 0B8F                       l1878 08E8  
                     l1896 0A1C                       l1888 086B                       l1992 0D9D  
                     l1984 0D8A                       l1976 0D78                       l1898 0A1F  
                     l1986 0D8F                       l1994 0D9F                       l1978 0D7F  
                     l1996 0DA7                       l1988 0D94                       l1998 0DAC  
             ?_LCD_comando 0070                       STR_1 0806                       u2000 0A76  
                     u2001 0A75                       u2010 0A7B                       u2011 0A7A  
                     u2100 0B8A                       u2020 0B10                       _CONT 00A0  
                     u2101 0B89                       u2021 0B0F                       u2110 0B8F  
                     u2030 0B35                       u2111 0B8E                       u2200 0DE5  
                     u2120 0D89                       u2040 0B4D                       u2201 0DE4  
                     u2121 0D88                       u3001 022C                       u2041 0B4C  
                     u2210 0E3D                       u2130 0D8F                       u3002 0233  
                     u2050 0B54                       u2211 0E3C                       u2131 0D8E  
                     u3011 0259                       u3003 023A                       u2051 0B53  
                     u2035 0B30                       u2220 0E48                       u2140 0D94  
                     u3012 0260                       u2301 0E9D                       u2221 0E46  
                     u2141 0D93                       u3013 0267                       u2310 0EAF  
                     u2302 0EA4                       u2230 0E49                       u2150 0DB2  
                     u2070 0B6A                       u2311 0EAE                       u2303 0EAB  
                     u2215 0E39                       u2151 0DB1                       u3031 028F  
                     u2071 0B69                       u2400 0F5A                       u2320 0EB3  
                     u2240 0E5D                       u2160 0DBD                       u3200 03D4  
                     u3120 0379                       u3032 0296                       u2080 0B71  
                     u2401 0F59                       u2321 0EB2                       u2241 0E5C  
                     u2161 0DBC                       u3121 0378                       u3105 0357  
                     u3041 02BC                       u3033 029D                       u3025 0269  
                     u2081 0B70                       u2065 0B56                       u2330 0EC2  
                     u2250 0E6C                       u2170 0DC3                       u3210 03F1  
                     u3042 02C3                       u2331 0EC1                       u2251 0E6B  
                     u2171 0DC2                       u3211 03F0                       u3115 036E  
                     u3051 02E9                       u3043 02CA                       u2500 0FAF  
                     u2420 0F70                       u2180 0DC8                       u3220 040B  
                     u3140 038D                       u3060 0313                       u3052 02F0  
                     u3300 0090                       u1700 09C6                       u2501 0FAE  
                     u2421 0F6F                       u2181 0DC7                       u3221 040A  
                     u3205 03CF                       u3141 038C                       u3053 02F7  
                     u3301 008F                       u1701 09C5                       u2510 0FBE  
                     u2430 0F75                       u2350 0EE7                       u2270 0E82  
                     u2190 0DE1                       u3230 0429                       u3150 0392  
                     u2431 0F74                       u2415 0F65                       u2351 0EE6  
                     u2271 0E81                       u2191 0DE0                       u3231 0428  
                     u3215 03ED                       u3151 0391                       u3135 037C  
                     u3071 031F                       u2095 0B76                       u2520 0FCD  
                     u2440 0F7F                       u2280 0E86                       u2600 0BB7  
                     u1800 08FB                       u3160 03A6                       u3080 033B  
                     u3072 0326                       u3320 00A0                       u3240 0029  
                     u1720 09DA                       u2521 0FCC                       u2441 0F7E  
                     u2361 0EFE                       u2353 0EE3                       u2345 0EC5  
                     u2281 0E85                       u2265 0E6F                       u2601 0BB6  
                     u1801 08FA                       u3225 0407                       u3161 03A5  
                     u3073 032D                       u3065 030E                       u3321 009F  
                     u3241 0028                       u1721 09D9                       u2530 0FD6  
                     u2450 0F85                       u2370 0F12                       u2362 0EFF  
                     u2290 0E8B                       u2610 0BD9                       u3170 03AD  
                     u3330 00A6                       u3250 002D                       u2531 0FD5  
                     u2515 0FB9                       u2451 0F84                       u2371 0F13  
                     u2363 0F04                       u2291 0E8A                       u2611 0BD8  
                     u3171 03AC                       u3091 0347                       u3331 00A5  
                     u3315 0095                       u3251 002C                       u1715 09CB  
                     u1900 0867                       u2540 0FDB                       u2460 0F8A  
                     u2380 0F30                       u2372 0F18                       u2364 0F05  
                     u2620 0BDF                       u1820 090F                       u3180 03B3  
                     u3092 034E                       u3340 00AA                       u3260 004D  
                     u1740 09F5                       u1901 0866                       u2541 0FDA  
                     u2461 0F89                       u2381 0F2F                       u2373 0F19  
                     u2365 0F0A                       u2621 0BDE                       u1821 090E  
                     u3181 03B2                       u3093 0355                       u3085 0336  
                     u3341 00A9                       u3261 004C                       u1741 09F4  
                     u1830 0935                       u1910 0874                       u2550 0FE8  
                     u2470 0F90                       u2390 0F55                       u2366 0F0B  
                     u2710 0C89                       u2630 0BE4                       u3190 03C5  
                     u3350 00BF                       u1831 0934                       u1911 0873  
                     u2551 0FE7                       u2471 0F8F                       u2391 0F54  
                     u2711 0C88                       u2631 0BE3                       u1815 0902  
                     u3191 03C4                       u1735 09DC                       u3407 049C  
                     u1840 087C                       u1920 0A23                       u2560 0FED  
                     u2480 0F97                       u2800 0CED                       u2720 0CA2  
                     u2640 0BFF                       u3360 00CF                       u3280 006E  
                     u1760 0A13                       u1841 087B                       u1921 0A22  
                     u2561 0FEC                       u2481 0F96                       u2801 0CEC  
                     u2721 0CA1                       u2705 0C70                       u2641 0BFE  
                     u3361 00CE                       u3281 006D                       u1761 0A12  
                     u1745 09F1                       u3417 04C7                       u1850 08C7  
                     u1930 0A2E                       u2570 0FFE                       u2490 0F9D  
                     u2810 0CF3                       u2730 0CAA                       u2650 0C1D  
                     u3370 00D3                       u1770 0959                       u1851 08C6  
                     u1931 0A2D                       u2571 0FFD                       u2491 0F9C  
                     u2811 0CF2                       u2731 0CA9                       u2715 0C85  
                     u2651 0C1C                       u3371 00D2                       u3355 00BA  
                     u3275 0060                       u1755 0A05                       u3507 0AEA  
                     u3427 0510                       u1780 085A                       u1940 0A3F  
                     u2820 0D05                       u2660 0C57                       u2580 0BAC  
                     u2900 011A                       u1860 08CE                       u3380 07AD  
                     u1781 0859                       u1941 0A3E                       u2821 0D04  
                     u2661 0C56                       u2581 0BAB                       u2901 0119  
                     u1861 08CD                       u3517 0AEF                       u3437 0A97  
                     u3381 07AC                       u1790 0860                       u2830 0D14  
                     u2750 0CB9                       u2590 0BB2                       u2910 0120  
                     u1791 085F                       u3527 0895                       u2751 0CB8  
                     u2591 0BB1                       u2911 011F                       u3295 0082  
                     u1775 0954                       u3447 0AA6                       u1960 0A51  
                     u2840 0D31                       u2920 0125                       u3537 089D  
                     u1961 0A50                       u2841 0D30                       u2745 0CAE  
                     u2921 0124                       u3457 0AB3                       u2850 0D4E  
                     u2770 0CCD                       u2690 0C6D                       u2930 013C  
                     u1890 08E8                       u3547 08A8                       u1955 0A43  
                     u2851 0D4D                       u2835 0D0F                       u2771 0CCC  
                     u2691 0C6C                       u2675 0C59                       u2931 013B  
                     u1891 08E7                       u1875 08D5                       u3467 0ABE  
                     _PEIE 005E                       u1980 0A62                       u2860 0D65  
                     u2780 0CD2                       u2940 0141                       u3557 0009  
                     u1981 0A61                       u2861 0D64                       u2845 0D2D  
                     u2781 0CD1                       u2765 0CBC                       u2685 0C62  
                     u2941 0140                       u1885 08DC                       u3477 0AC9  
                     u3397 046C                       u2790 0CE6                       u2870 00EE  
                     u3567 0014                       u1975 0A52                       u2855 0D4A  
                     u2791 0CE5                       u2951 0192                       u2871 00ED  
                     u3487 0AD4                       u2952 0199                       u2880 00F4  
                     u3577 001C                       u1985 0A5E                       u2961 01AE  
                     u2953 01A0                       u2881 00F3                       u3497 0ADF  
                     u2962 01B5                       u2890 00F9                       u1995 0A6A  
                     u2971 01DA                       u2963 01BC                       u2891 00F8  
                     u2972 01E1                       u2981 01F6                       u2973 01E8  
                     u2982 01FD                       u2983 0204                       u2995 0206  
                     _TEMP 006E                       _main 043E                       btemp 007E  
                     start 0000            ___fldiv@new_exp 004C          ___bmul@multiplier 0073  
         __end_of_LCD_Data 0023           __end_of_LCD_Init 0AFF           ?_I2C_Master_Init 0020  
         ?_I2C_Master_Read 0070               LCD_Data@data 0071           ?_I2C_Master_Wait 0070  
         ?_I2C_Master_Stop 0070              ___fltol@sign1 006C            __end_of___fladd 1000  
                    ?_main 0070            __end_of___fldiv 0D78            __end_of___awdiv 0A85  
          __end_of___flmul 043E            __end_of___fltol 0B9B                      _ANSEL 0188  
          __end_of___lldiv 0A1C            ___awdiv@divisor 0076            ___awdiv@counter 0020  
                    _PORTA 0005                      _PORTB 0006                      _PORTD 0008  
                    _TRISA 0085                      _TRISB 0086                      _TRISD 0088  
                    _SSPIE 0463                      _SSPIF 0063        __size_of_LCD_Cadena 0024  
                    _setup 097A                      pclath 000A                      status 0003  
                    wtemp0 007E            __initialization 07E9               __end_of_main 07E9  
                   ??_main 00B2          ?_I2C_Master_Start 0070          ?_I2C_Master_Write 0070  
       ??_I2C_Master_Start 0070         ??_I2C_Master_Write 0072           ___awdiv@dividend 0078  
                   ?_setup 0070                     _ANSELH 0189                     _LCD_XY 0876  
                   _SSPADD 0093                     _TRISC3 043B                     _TRISC4 043C  
                   _SSPCON 0014                     _SSPBUF 0013           __end_of___xxtofl 00DD  
                   ___bmul 0861                  ??___fladd 005C                     ___wmul 08C8  
                ??___fldiv 0042                  ??___awdiv 007A                     _decena 00AB  
                ??___flmul 0028                  ??___fltol 00AD                  ??___lldiv 0078  
         ___awdiv@quotient 0022                     _unidad 00AA         __size_of__Umul8_16 0027  
             ___xxtofl@arg 007A               ___xxtofl@exp 0079               ___xxtofl@val 0070  
                ?_LCD_Data 0070    __end_of__initialization 07FC                  ?_LCD_Init 0070  
     __size_of_LCD_comando 0018                 ___fltol@f1 0068        ___bmul@multiplicand 0070  
             ??_LCD_Cadena 0072             __pcstackCOMMON 0070              __end_of_setup 09B6  
           LCD_Cadena@dato 0073         __end_of_LCD_Cadena 08C8                    ??_setup 007E  
               __pbssBANK0 006E                 __pbssBANK1 00A0                    ?_LCD_XY 0072  
                  LCD_XY@x 0073                    LCD_XY@y 0072                 ??_LCD_Data 0070  
               ??_LCD_Init 0072          __end_of__Umul8_16 0914                 __pmaintext 043E  
                  ?___bmul 0070                    ?___wmul 0070                  ?___xxtofl 0070  
                  _SSPCON2 0091                    _SSPSTAT 0094                 __stringtab 0800  
          __size_of_LCD_XY 0016            __size_of___bmul 0015                    ___fladd 0D78  
                  ___fldiv 0B9B                    ___awdiv 0A1C                    ___flmul 00DD  
                  ___fltol 0AFF                    ___lldiv 09B6            __size_of___wmul 0025  
                  _decena1 00A8                    _decena2 00A5                    _centena 00AC  
                  __ptext1 097A                    __ptext2 0A85                    __ptext3 0942  
                  __ptext4 09B6                    __ptext5 0023                    __ptext6 08C8  
                  __ptext7 0AFF                    __ptext8 00DD                    __ptext9 08ED  
               ??___xxtofl 0074   __size_of_I2C_Master_Init 0038   __size_of_I2C_Master_Read 002E  
 __size_of_I2C_Master_Wait 000D   __size_of_I2C_Master_Stop 0009                    _unidad1 00A7  
                  _unidad2 00A4       end_of_initialization 07FC  __size_of_I2C_Master_Start 0009  
__size_of_I2C_Master_Write 000A            ___lldiv@divisor 0070            ___lldiv@counter 007D  
         I2C_Master_Init@c 0020           I2C_Master_Read@a 0070                  _PORTCbits 0007  
              ___fladd@grs 0067              ___xxtofl@sign 0078                  _TRISCbits 0087  
              ___fldiv@grs 004E                ___fldiv@rem 0047                ___flmul@grs 002E  
           __end_of_LCD_XY 088C          __size_of_LCD_Data 001D          __size_of_LCD_Init 007A  
           __end_of___bmul 0876             __end_of___wmul 08ED        start_initialization 07E9  
            ??_LCD_comando 0070                   ??_LCD_XY 0073          ??_I2C_Master_Init 0024  
        ??_I2C_Master_Read 0072          ??_I2C_Master_Wait 0070          ??_I2C_Master_Stop 0070  
                 ??___bmul 0071                   ??___wmul 0074                  __Umul8_16 08ED  
                ___fladd@a 0058                  ___fladd@b 0054                  ___fldiv@a 003A  
                ___fldiv@b 003E                  ___flmul@a 0024                  ___flmul@b 0020  
                ___latbits 0002              __pcstackBANK0 0020              __pcstackBANK1 00AD  
        __size_of___xxtofl 00BA           _I2C_Master_Start 0838           _I2C_Master_Write 084A  
      __end_of_LCD_comando 08A4                   ?___fladd 0054                   ?___fldiv 003A  
                 ?___awdiv 0076                   ?___flmul 0020                   ?___fltol 0068  
                 ?___lldiv 0070                 ?__Umul8_16 0070                  __pstrings 0800  
           __size_of_setup 003C                   _LCD_Data 0006                   _LCD_Init 0A85  
           ___wmul@product 0074                __stringbase 0805          ___wmul@multiplier 0070  
      I2C_Master_Read@temp 0074                _LCD_comando 088C                ??__Umul8_16 0072  
         __size_of___fladd 0288           __size_of___fldiv 01DD           __size_of___awdiv 0069  
         __size_of___flmul 0361           __size_of___fltol 009C           __size_of___lldiv 0066  
       __end_of__stringtab 0806            _I2C_Master_Init 0942            _I2C_Master_Read 0914  
                 ___xxtofl 0023            _I2C_Master_Wait 0854            _I2C_Master_Stop 0841  
                 _centena1 00A9                   _centena2 00A6                   __ptext10 0B9B  
                 __ptext11 0D78                   __ptext20 0838                   __ptext12 0861  
                 __ptext21 0914                   __ptext13 0A1C                   __ptext22 0854  
                 __ptext14 0876                   __ptext15 088C                   __ptext16 08A4  
                 __ptext17 0006                   __ptext18 084A                   __ptext19 0841  
            __size_of_main 03AB                 _LCD_Cadena 08A4   __end_of_I2C_Master_Start 0841  
 __end_of_I2C_Master_Write 0854           ___lldiv@dividend 0074                  stringcode 0800  
               _OSCCONbits 008F    __end_of_I2C_Master_Init 097A    __end_of_I2C_Master_Read 0942  
  __end_of_I2C_Master_Wait 0861    __end_of_I2C_Master_Stop 084A     __Umul8_16@multiplicand 0070  
         ___lldiv@quotient 0079            LCD_comando@dato 0071          I2C_Master_Write@d 0070  
                 stringdir 0800                   stringtab 0800                _SSPCON2bits 0091  
            ___fladd@signs 0064               ___fladd@aexp 0065               ___fladd@bexp 0066  
     __Umul8_16@multiplier 0078          __Umul8_16@product 0074                ?_LCD_Cadena 0070  
